<?xml version="1.0" encoding="utf-8"?>
<?xml-stylesheet type="text/xsl" href="pdml2html.xsl"?>
<!-- You can find pdml2html.xsl in /usr/share/wireshark or at https://code.wireshark.org/review/gitweb?p=wireshark.git;a=blob_plain;f=pdml2html.xsl. -->
<pdml version="0" creator="wireshark/2.6.3" time="Sat Dec  8 17:24:01 2018" capture_file="/root/Documents/team10ss/backend/files/ipv4frags.pcap">
<packet>
  <proto name="geninfo" pos="0" showname="General information" size="1010">
    <field name="num" pos="0" show="1" showname="Number" value="1" size="1010"/>
    <field name="len" pos="0" show="1010" showname="Frame Length" value="3f2" size="1010"/>
    <field name="caplen" pos="0" show="1010" showname="Captured Length" value="3f2" size="1010"/>
    <field name="timestamp" pos="0" show="Oct  2, 2017 08:03:32.535132000 EDT" showname="Captured Time" value="1506945812.535132000" size="1010"/>
  </proto>
  <proto name="frame" showname="Frame 1: 1010 bytes on wire (8080 bits), 1010 bytes captured (8080 bits)" size="1010" pos="0">
    <field name="frame.encap_type" showname="Encapsulation type: Ethernet (1)" size="0" pos="0" show="1"/>
    <field name="frame.time" showname="Arrival Time: Oct  2, 2017 08:03:32.535132000 EDT" size="0" pos="0" show="Oct  2, 2017 08:03:32.535132000 EDT"/>
    <field name="frame.offset_shift" showname="Time shift for this packet: 0.000000000 seconds" size="0" pos="0" show="0.000000000"/>
    <field name="frame.time_epoch" showname="Epoch Time: 1506945812.535132000 seconds" size="0" pos="0" show="1506945812.535132000"/>
    <field name="frame.time_delta" showname="Time delta from previous captured frame: 0.000000000 seconds" size="0" pos="0" show="0.000000000"/>
    <field name="frame.time_delta_displayed" showname="Time delta from previous displayed frame: 0.000000000 seconds" size="0" pos="0" show="0.000000000"/>
    <field name="frame.time_relative" showname="Time since reference or first frame: 0.000000000 seconds" size="0" pos="0" show="0.000000000"/>
    <field name="frame.number" showname="Frame Number: 1" size="0" pos="0" show="1"/>
    <field name="frame.len" showname="Frame Length: 1010 bytes (8080 bits)" size="0" pos="0" show="1010"/>
    <field name="frame.cap_len" showname="Capture Length: 1010 bytes (8080 bits)" size="0" pos="0" show="1010"/>
    <field name="frame.marked" showname="Frame is marked: False" size="0" pos="0" show="0"/>
    <field name="frame.ignored" showname="Frame is ignored: False" size="0" pos="0" show="0"/>
    <field name="frame.protocols" showname="Protocols in frame: eth:ethertype:ip:data" size="0" pos="0" show="eth:ethertype:ip:data"/>
  </proto>
  <proto name="eth" showname="Ethernet II, Src: PcsCompu_fc:6a:c9 (08:00:27:fc:6a:c9), Dst: PcsCompu_e2:9f:a6 (08:00:27:e2:9f:a6)" size="14" pos="0">
    <field name="eth.dst" showname="Destination: PcsCompu_e2:9f:a6 (08:00:27:e2:9f:a6)" size="6" pos="0" show="08:00:27:e2:9f:a6" value="080027e29fa6">
      <field name="eth.dst_resolved" showname="Destination (resolved): PcsCompu_e2:9f:a6" hide="yes" size="6" pos="0" show="PcsCompu_e2:9f:a6" value="080027e29fa6"/>
      <field name="eth.addr" showname="Address: PcsCompu_e2:9f:a6 (08:00:27:e2:9f:a6)" size="6" pos="0" show="08:00:27:e2:9f:a6" value="080027e29fa6"/>
      <field name="eth.addr_resolved" showname="Address (resolved): PcsCompu_e2:9f:a6" hide="yes" size="6" pos="0" show="PcsCompu_e2:9f:a6" value="080027e29fa6"/>
      <field name="eth.lg" showname=".... ..0. .... .... .... .... = LG bit: Globally unique address (factory default)" size="3" pos="0" show="0" value="0" unmaskedvalue="080027"/>
      <field name="eth.ig" showname=".... ...0 .... .... .... .... = IG bit: Individual address (unicast)" size="3" pos="0" show="0" value="0" unmaskedvalue="080027"/>
    </field>
    <field name="eth.src" showname="Source: PcsCompu_fc:6a:c9 (08:00:27:fc:6a:c9)" size="6" pos="6" show="08:00:27:fc:6a:c9" value="080027fc6ac9">
      <field name="eth.src_resolved" showname="Source (resolved): PcsCompu_fc:6a:c9" hide="yes" size="6" pos="6" show="PcsCompu_fc:6a:c9" value="080027fc6ac9"/>
      <field name="eth.addr" showname="Address: PcsCompu_fc:6a:c9 (08:00:27:fc:6a:c9)" size="6" pos="6" show="08:00:27:fc:6a:c9" value="080027fc6ac9"/>
      <field name="eth.addr_resolved" showname="Address (resolved): PcsCompu_fc:6a:c9" hide="yes" size="6" pos="6" show="PcsCompu_fc:6a:c9" value="080027fc6ac9"/>
      <field name="eth.lg" showname=".... ..0. .... .... .... .... = LG bit: Globally unique address (factory default)" size="3" pos="6" show="0" value="0" unmaskedvalue="080027"/>
      <field name="eth.ig" showname=".... ...0 .... .... .... .... = IG bit: Individual address (unicast)" size="3" pos="6" show="0" value="0" unmaskedvalue="080027"/>
    </field>
    <field name="eth.type" showname="Type: IPv4 (0x0800)" size="2" pos="12" show="0x00000800" value="0800"/>
  </proto>
  <proto name="ip" showname="Internet Protocol Version 4, Src: 2.1.1.2, Dst: 2.1.1.1" size="20" pos="14">
    <field name="ip.version" showname="0100 .... = Version: 4" size="1" pos="14" show="4" value="4" unmaskedvalue="45"/>
    <field name="ip.hdr_len" showname=".... 0101 = Header Length: 20 bytes (5)" size="1" pos="14" show="20" value="45"/>
    <field name="ip.dsfield" showname="Differentiated Services Field: 0x00 (DSCP: CS0, ECN: Not-ECT)" size="1" pos="15" show="0x00000000" value="00">
      <field name="ip.dsfield.dscp" showname="0000 00.. = Differentiated Services Codepoint: Default (0)" size="1" pos="15" show="0" value="0" unmaskedvalue="00"/>
      <field name="ip.dsfield.ecn" showname=".... ..00 = Explicit Congestion Notification: Not ECN-Capable Transport (0)" size="1" pos="15" show="0" value="0" unmaskedvalue="00"/>
    </field>
    <field name="ip.len" showname="Total Length: 996" size="2" pos="16" show="996" value="03e4"/>
    <field name="ip.id" showname="Identification: 0xb5d0 (46544)" size="2" pos="18" show="0x0000b5d0" value="b5d0"/>
    <field name="ip.flags" showname="Flags: 0x2000, More fragments" size="2" pos="20" show="0x00002000" value="2000">
      <field name="ip.flags.rb" showname="0... .... .... .... = Reserved bit: Not set" size="2" pos="20" show="0" value="0" unmaskedvalue="2000"/>
      <field name="ip.flags.df" showname=".0.. .... .... .... = Don&#x27;t fragment: Not set" size="2" pos="20" show="0" value="0" unmaskedvalue="2000"/>
      <field name="ip.flags.mf" showname="..1. .... .... .... = More fragments: Set" size="2" pos="20" show="1" value="1" unmaskedvalue="2000"/>
      <field name="ip.frag_offset" showname="...0 0000 0000 0000 = Fragment offset: 0" size="2" pos="20" show="0" value="0" unmaskedvalue="2000"/>
    </field>
    <field name="ip.ttl" showname="Time to live: 64" size="1" pos="22" show="64" value="40"/>
    <field name="ip.proto" showname="Protocol: ICMP (1)" size="1" pos="23" show="1" value="01"/>
    <field name="ip.checksum" showname="Header checksum: 0x9b44 [validation disabled]" size="2" pos="24" show="0x00009b44" value="9b44"/>
    <field name="ip.checksum.status" showname="Header checksum status: Unverified" size="0" pos="24" show="2"/>
    <field name="ip.src" showname="Source: 2.1.1.2" size="4" pos="26" show="2.1.1.2" value="02010102"/>
    <field name="ip.addr" showname="Source or Destination Address: 2.1.1.2" hide="yes" size="4" pos="26" show="2.1.1.2" value="02010102"/>
    <field name="ip.src_host" showname="Source Host: 2.1.1.2" hide="yes" size="4" pos="26" show="2.1.1.2" value="02010102"/>
    <field name="ip.host" showname="Source or Destination Host: 2.1.1.2" hide="yes" size="4" pos="26" show="2.1.1.2" value="02010102"/>
    <field name="ip.dst" showname="Destination: 2.1.1.1" size="4" pos="30" show="2.1.1.1" value="02010101"/>
    <field name="ip.addr" showname="Source or Destination Address: 2.1.1.1" hide="yes" size="4" pos="30" show="2.1.1.1" value="02010101"/>
    <field name="ip.dst_host" showname="Destination Host: 2.1.1.1" hide="yes" size="4" pos="30" show="2.1.1.1" value="02010101"/>
    <field name="ip.host" showname="Source or Destination Host: 2.1.1.1" hide="yes" size="4" pos="30" show="2.1.1.1" value="02010101"/>
  </proto>
  <proto name="fake-field-wrapper">
    <field name="data" value="08004d7113c20001142bd259000000003d2a080000000000101112131415161718191a1b1c1d1e1f202122232425262728292a2b2c2d2e2f303132333435363738393a3b3c3d3e3f404142434445464748494a4b4c4d4e4f505152535455565758595a5b5c5d5e5f606162636465666768696a6b6c6d6e6f707172737475767778797a7b7c7d7e7f808182838485868788898a8b8c8d8e8f909192939495969798999a9b9c9d9e9fa0a1a2a3a4a5a6a7a8a9aaabacadaeafb0b1b2b3b4b5b6b7b8b9babbbcbdbebfc0c1c2c3c4c5c6c7c8c9cacbcccdcecfd0d1d2d3d4d5d6d7d8d9dadbdcdddedfe0e1e2e3e4e5e6e7e8e9eaebecedeeeff0f1f2f3f4f5f6f7f8f9fafbfcfdfeff000102030405060708090a0b0c0d0e0f101112131415161718191a1b1c1d1e1f202122232425262728292a2b2c2d2e2f303132333435363738393a3b3c3d3e3f404142434445464748494a4b4c4d4e4f505152535455565758595a5b5c5d5e5f606162636465666768696a6b6c6d6e6f707172737475767778797a7b7c7d7e7f808182838485868788898a8b8c8d8e8f909192939495969798999a9b9c9d9e9fa0a1a2a3a4a5a6a7a8a9aaabacadaeafb0b1b2b3b4b5b6b7b8b9babbbcbdbebfc0c1c2c3c4c5c6c7c8c9cacbcccdcecfd0d1d2d3d4d5d6d7d8d9dadbdcdddedfe0e1e2e3e4e5e6e7e8e9eaebecedeeeff0f1f2f3f4f5f6f7f8f9fafbfcfdfeff000102030405060708090a0b0c0d0e0f101112131415161718191a1b1c1d1e1f202122232425262728292a2b2c2d2e2f303132333435363738393a3b3c3d3e3f404142434445464748494a4b4c4d4e4f505152535455565758595a5b5c5d5e5f606162636465666768696a6b6c6d6e6f707172737475767778797a7b7c7d7e7f808182838485868788898a8b8c8d8e8f909192939495969798999a9b9c9d9e9fa0a1a2a3a4a5a6a7a8a9aaabacadaeafb0b1b2b3b4b5b6b7b8b9babbbcbdbebfc0c1c2c3c4c5c6c7c8c9cacbcccdcecfd0d1d2d3d4d5d6d7d8d9dadbdcdddedfe0e1e2e3e4e5e6e7e8e9eaebecedeeeff0f1f2f3f4f5f6f7f8f9fafbfcfdfeff000102030405060708090a0b0c0d0e0f101112131415161718191a1b1c1d1e1f202122232425262728292a2b2c2d2e2f303132333435363738393a3b3c3d3e3f404142434445464748494a4b4c4d4e4f505152535455565758595a5b5c5d5e5f606162636465666768696a6b6c6d6e6f707172737475767778797a7b7c7d7e7f808182838485868788898a8b8c8d8e8f909192939495969798999a9b9c9d9e9fa0a1a2a3a4a5a6a7a8a9aaabacadaeafb0b1b2b3b4b5b6b7b8b9babbbcbdbebfc0c1c2c3c4c5c6c7">
      <field name="data.data" showname="Data: 08004d7113c20001142bd259000000003d2a080000000000..." size="976" pos="34" show="08:00:4d:71:13:c2:00:01:14:2b:d2:59:00:00:00:00:3d:2a:08:00:00:00:00:00:10:11:12:13:14:15:16:17:18:19:1a:1b:1c:1d:1e:1f:20:21:22:23:24:25:26:27:28:29:2a:2b:2c:2d:2e:2f:30:31:32:33:34:35:36:37:38:39:3a:3b:3c:3d:3e:3f:40:41:42:43:44:45:46:47:48:49:4a:4b:4c:4d:4e:4f:50:51:52:53:54:55:56:57:58:59:5a:5b:5c:5d:5e:5f:60:61:62:63:64:65:66:67:68:69:6a:6b:6c:6d:6e:6f:70:71:72:73:74:75:76:77:78:79:7a:7b:7c:7d:7e:7f:80:81:82:83:84:85:86:87:88:89:8a:8b:8c:8d:8e:8f:90:91:92:93:94:95:96:97:98:99:9a:9b:9c:9d:9e:9f:a0:a1:a2:a3:a4:a5:a6:a7:a8:a9:aa:ab:ac:ad:ae:af:b0:b1:b2:b3:b4:b5:b6:b7:b8:b9:ba:bb:bc:bd:be:bf:c0:c1:c2:c3:c4:c5:c6:c7:c8:c9:ca:cb:cc:cd:ce:cf:d0:d1:d2:d3:d4:d5:d6:d7:d8:d9:da:db:dc:dd:de:df:e0:e1:e2:e3:e4:e5:e6:e7:e8:e9:ea:eb:ec:ed:ee:ef:f0:f1:f2:f3:f4:f5:f6:f7:f8:f9:fa:fb:fc:fd:fe:ff:00:01:02:03:04:05:06:07:08:09:0a:0b:0c:0d:0e:0f:10:11:12:13:14:15:16:17:18:19:1a:1b:1c:1d:1e:1f:20:21:22:23:24:25:26:27:28:29:2a:2b:2c:2d:2e:2f:30:31:32:33:34:35:36:37:38:39:3a:3b:3c:3d:3e:3f:40:41:42:43:44:45:46:47:48:49:4a:4b:4c:4d:4e:4f:50:51:52:53:54:55:56:57:58:59:5a:5b:5c:5d:5e:5f:60:61:62:63:64:65:66:67:68:69:6a:6b:6c:6d:6e:6f:70:71:72:73:74:75:76:77:78:79:7a:7b:7c:7d:7e:7f:80:81:82:83:84:85:86:87:88:89:8a:8b:8c:8d:8e:8f:90:91:92:93:94:95:96:97:98:99:9a:9b:9c:9d:9e:9f:a0:a1:a2:a3:a4:a5:a6:a7:a8:a9:aa:ab:ac:ad:ae:af:b0:b1:b2:b3:b4:b5:b6:b7:b8:b9:ba:bb:bc:bd:be:bf:c0:c1:c2:c3:c4:c5:c6:c7:c8:c9:ca:cb:cc:cd:ce:cf:d0:d1:d2:d3:d4:d5:d6:d7:d8:d9:da:db:dc:dd:de:df:e0:e1:e2:e3:e4:e5:e6:e7:e8:e9:ea:eb:ec:ed:ee:ef:f0:f1:f2:f3:f4:f5:f6:f7:f8:f9:fa:fb:fc:fd:fe:ff:00:01:02:03:04:05:06:07:08:09:0a:0b:0c:0d:0e:0f:10:11:12:13:14:15:16:17:18:19:1a:1b:1c:1d:1e:1f:20:21:22:23:24:25:26:27:28:29:2a:2b:2c:2d:2e:2f:30:31:32:33:34:35:36:37:38:39:3a:3b:3c:3d:3e:3f:40:41:42:43:44:45:46:47:48:49:4a:4b:4c:4d:4e:4f:50:51:52:53:54:55:56:57:58:59:5a:5b:5c:5d:5e:5f:60:61:62:63:64:65:66:67:68:69:6a:6b:6c:6d:6e:6f:70:71:72:73:74:75:76:77:78:79:7a:7b:7c:7d:7e:7f:80:81:82:83:84:85:86:87:88:89:8a:8b:8c:8d:8e:8f:90:91:92:93:94:95:96:97:98:99:9a:9b:9c:9d:9e:9f:a0:a1:a2:a3:a4:a5:a6:a7:a8:a9:aa:ab:ac:ad:ae:af:b0:b1:b2:b3:b4:b5:b6:b7:b8:b9:ba:bb:bc:bd:be:bf:c0:c1:c2:c3:c4:c5:c6:c7:c8:c9:ca:cb:cc:cd:ce:cf:d0:d1:d2:d3:d4:d5:d6:d7:d8:d9:da:db:dc:dd:de:df:e0:e1:e2:e3:e4:e5:e6:e7:e8:e9:ea:eb:ec:ed:ee:ef:f0:f1:f2:f3:f4:f5:f6:f7:f8:f9:fa:fb:fc:fd:fe:ff:00:01:02:03:04:05:06:07:08:09:0a:0b:0c:0d:0e:0f:10:11:12:13:14:15:16:17:18:19:1a:1b:1c:1d:1e:1f:20:21:22:23:24:25:26:27:28:29:2a:2b:2c:2d:2e:2f:30:31:32:33:34:35:36:37:38:39:3a:3b:3c:3d:3e:3f:40:41:42:43:44:45:46:47:48:49:4a:4b:4c:4d:4e:4f:50:51:52:53:54:55:56:57:58:59:5a:5b:5c:5d:5e:5f:60:61:62:63:64:65:66:67:68:69:6a:6b:6c:6d:6e:6f:70:71:72:73:74:75:76:77:78:79:7a:7b:7c:7d:7e:7f:80:81:82:83:84:85:86:87:88:89:8a:8b:8c:8d:8e:8f:90:91:92:93:94:95:96:97:98:99:9a:9b:9c:9d:9e:9f:a0:a1:a2:a3:a4:a5:a6:a7:a8:a9:aa:ab:ac:ad:ae:af:b0:b1:b2:b3:b4:b5:b6:b7:b8:b9:ba:bb:bc:bd:be:bf:c0:c1:c2:c3:c4:c5:c6:c7" value="08004d7113c20001142bd259000000003d2a080000000000101112131415161718191a1b1c1d1e1f202122232425262728292a2b2c2d2e2f303132333435363738393a3b3c3d3e3f404142434445464748494a4b4c4d4e4f505152535455565758595a5b5c5d5e5f606162636465666768696a6b6c6d6e6f707172737475767778797a7b7c7d7e7f808182838485868788898a8b8c8d8e8f909192939495969798999a9b9c9d9e9fa0a1a2a3a4a5a6a7a8a9aaabacadaeafb0b1b2b3b4b5b6b7b8b9babbbcbdbebfc0c1c2c3c4c5c6c7c8c9cacbcccdcecfd0d1d2d3d4d5d6d7d8d9dadbdcdddedfe0e1e2e3e4e5e6e7e8e9eaebecedeeeff0f1f2f3f4f5f6f7f8f9fafbfcfdfeff000102030405060708090a0b0c0d0e0f101112131415161718191a1b1c1d1e1f202122232425262728292a2b2c2d2e2f303132333435363738393a3b3c3d3e3f404142434445464748494a4b4c4d4e4f505152535455565758595a5b5c5d5e5f606162636465666768696a6b6c6d6e6f707172737475767778797a7b7c7d7e7f808182838485868788898a8b8c8d8e8f909192939495969798999a9b9c9d9e9fa0a1a2a3a4a5a6a7a8a9aaabacadaeafb0b1b2b3b4b5b6b7b8b9babbbcbdbebfc0c1c2c3c4c5c6c7c8c9cacbcccdcecfd0d1d2d3d4d5d6d7d8d9dadbdcdddedfe0e1e2e3e4e5e6e7e8e9eaebecedeeeff0f1f2f3f4f5f6f7f8f9fafbfcfdfeff000102030405060708090a0b0c0d0e0f101112131415161718191a1b1c1d1e1f202122232425262728292a2b2c2d2e2f303132333435363738393a3b3c3d3e3f404142434445464748494a4b4c4d4e4f505152535455565758595a5b5c5d5e5f606162636465666768696a6b6c6d6e6f707172737475767778797a7b7c7d7e7f808182838485868788898a8b8c8d8e8f909192939495969798999a9b9c9d9e9fa0a1a2a3a4a5a6a7a8a9aaabacadaeafb0b1b2b3b4b5b6b7b8b9babbbcbdbebfc0c1c2c3c4c5c6c7c8c9cacbcccdcecfd0d1d2d3d4d5d6d7d8d9dadbdcdddedfe0e1e2e3e4e5e6e7e8e9eaebecedeeeff0f1f2f3f4f5f6f7f8f9fafbfcfdfeff000102030405060708090a0b0c0d0e0f101112131415161718191a1b1c1d1e1f202122232425262728292a2b2c2d2e2f303132333435363738393a3b3c3d3e3f404142434445464748494a4b4c4d4e4f505152535455565758595a5b5c5d5e5f606162636465666768696a6b6c6d6e6f707172737475767778797a7b7c7d7e7f808182838485868788898a8b8c8d8e8f909192939495969798999a9b9c9d9e9fa0a1a2a3a4a5a6a7a8a9aaabacadaeafb0b1b2b3b4b5b6b7b8b9babbbcbdbebfc0c1c2c3c4c5c6c7"/>
      <field name="data.len" showname="Length: 976" size="0" pos="34" show="976"/>
  </field>
  </proto>
</packet>


<packet>
  <proto name="geninfo" pos="0" showname="General information" size="466">
    <field name="num" pos="0" show="2" showname="Number" value="2" size="466"/>
    <field name="len" pos="0" show="466" showname="Frame Length" value="1d2" size="466"/>
    <field name="caplen" pos="0" show="466" showname="Captured Length" value="1d2" size="466"/>
    <field name="timestamp" pos="0" show="Oct  2, 2017 08:03:32.535197000 EDT" showname="Captured Time" value="1506945812.535197000" size="466"/>
  </proto>
  <proto name="frame" showname="Frame 2: 466 bytes on wire (3728 bits), 466 bytes captured (3728 bits)" size="466" pos="0">
    <field name="frame.encap_type" showname="Encapsulation type: Ethernet (1)" size="0" pos="0" show="1"/>
    <field name="frame.time" showname="Arrival Time: Oct  2, 2017 08:03:32.535197000 EDT" size="0" pos="0" show="Oct  2, 2017 08:03:32.535197000 EDT"/>
    <field name="frame.offset_shift" showname="Time shift for this packet: 0.000000000 seconds" size="0" pos="0" show="0.000000000"/>
    <field name="frame.time_epoch" showname="Epoch Time: 1506945812.535197000 seconds" size="0" pos="0" show="1506945812.535197000"/>
    <field name="frame.time_delta" showname="Time delta from previous captured frame: 0.000065000 seconds" size="0" pos="0" show="0.000065000"/>
    <field name="frame.time_delta_displayed" showname="Time delta from previous displayed frame: 0.000065000 seconds" size="0" pos="0" show="0.000065000"/>
    <field name="frame.time_relative" showname="Time since reference or first frame: 0.000065000 seconds" size="0" pos="0" show="0.000065000"/>
    <field name="frame.number" showname="Frame Number: 2" size="0" pos="0" show="2"/>
    <field name="frame.len" showname="Frame Length: 466 bytes (3728 bits)" size="0" pos="0" show="466"/>
    <field name="frame.cap_len" showname="Capture Length: 466 bytes (3728 bits)" size="0" pos="0" show="466"/>
    <field name="frame.marked" showname="Frame is marked: False" size="0" pos="0" show="0"/>
    <field name="frame.ignored" showname="Frame is ignored: False" size="0" pos="0" show="0"/>
    <field name="frame.protocols" showname="Protocols in frame: eth:ethertype:ip:icmp:data" size="0" pos="0" show="eth:ethertype:ip:icmp:data"/>
  </proto>
  <proto name="eth" showname="Ethernet II, Src: PcsCompu_fc:6a:c9 (08:00:27:fc:6a:c9), Dst: PcsCompu_e2:9f:a6 (08:00:27:e2:9f:a6)" size="14" pos="0">
    <field name="eth.dst" showname="Destination: PcsCompu_e2:9f:a6 (08:00:27:e2:9f:a6)" size="6" pos="0" show="08:00:27:e2:9f:a6" value="080027e29fa6">
      <field name="eth.dst_resolved" showname="Destination (resolved): PcsCompu_e2:9f:a6" hide="yes" size="6" pos="0" show="PcsCompu_e2:9f:a6" value="080027e29fa6"/>
      <field name="eth.addr" showname="Address: PcsCompu_e2:9f:a6 (08:00:27:e2:9f:a6)" size="6" pos="0" show="08:00:27:e2:9f:a6" value="080027e29fa6"/>
      <field name="eth.addr_resolved" showname="Address (resolved): PcsCompu_e2:9f:a6" hide="yes" size="6" pos="0" show="PcsCompu_e2:9f:a6" value="080027e29fa6"/>
      <field name="eth.lg" showname=".... ..0. .... .... .... .... = LG bit: Globally unique address (factory default)" size="3" pos="0" show="0" value="0" unmaskedvalue="080027"/>
      <field name="eth.ig" showname=".... ...0 .... .... .... .... = IG bit: Individual address (unicast)" size="3" pos="0" show="0" value="0" unmaskedvalue="080027"/>
    </field>
    <field name="eth.src" showname="Source: PcsCompu_fc:6a:c9 (08:00:27:fc:6a:c9)" size="6" pos="6" show="08:00:27:fc:6a:c9" value="080027fc6ac9">
      <field name="eth.src_resolved" showname="Source (resolved): PcsCompu_fc:6a:c9" hide="yes" size="6" pos="6" show="PcsCompu_fc:6a:c9" value="080027fc6ac9"/>
      <field name="eth.addr" showname="Address: PcsCompu_fc:6a:c9 (08:00:27:fc:6a:c9)" size="6" pos="6" show="08:00:27:fc:6a:c9" value="080027fc6ac9"/>
      <field name="eth.addr_resolved" showname="Address (resolved): PcsCompu_fc:6a:c9" hide="yes" size="6" pos="6" show="PcsCompu_fc:6a:c9" value="080027fc6ac9"/>
      <field name="eth.lg" showname=".... ..0. .... .... .... .... = LG bit: Globally unique address (factory default)" size="3" pos="6" show="0" value="0" unmaskedvalue="080027"/>
      <field name="eth.ig" showname=".... ...0 .... .... .... .... = IG bit: Individual address (unicast)" size="3" pos="6" show="0" value="0" unmaskedvalue="080027"/>
    </field>
    <field name="eth.type" showname="Type: IPv4 (0x0800)" size="2" pos="12" show="0x00000800" value="0800"/>
  </proto>
  <proto name="ip" showname="Internet Protocol Version 4, Src: 2.1.1.2, Dst: 2.1.1.1" size="20" pos="14">
    <field name="ip.version" showname="0100 .... = Version: 4" size="1" pos="14" show="4" value="4" unmaskedvalue="45"/>
    <field name="ip.hdr_len" showname=".... 0101 = Header Length: 20 bytes (5)" size="1" pos="14" show="20" value="45"/>
    <field name="ip.dsfield" showname="Differentiated Services Field: 0x00 (DSCP: CS0, ECN: Not-ECT)" size="1" pos="15" show="0x00000000" value="00">
      <field name="ip.dsfield.dscp" showname="0000 00.. = Differentiated Services Codepoint: Default (0)" size="1" pos="15" show="0" value="0" unmaskedvalue="00"/>
      <field name="ip.dsfield.ecn" showname=".... ..00 = Explicit Congestion Notification: Not ECN-Capable Transport (0)" size="1" pos="15" show="0" value="0" unmaskedvalue="00"/>
    </field>
    <field name="ip.len" showname="Total Length: 452" size="2" pos="16" show="452" value="01c4"/>
    <field name="ip.id" showname="Identification: 0xb5d0 (46544)" size="2" pos="18" show="0x0000b5d0" value="b5d0"/>
    <field name="ip.flags" showname="Flags: 0x007a" size="2" pos="20" show="0x0000007a" value="007a">
      <field name="ip.flags.rb" showname="0... .... .... .... = Reserved bit: Not set" size="2" pos="20" show="0" value="0" unmaskedvalue="007a"/>
      <field name="ip.flags.df" showname=".0.. .... .... .... = Don&#x27;t fragment: Not set" size="2" pos="20" show="0" value="0" unmaskedvalue="007a"/>
      <field name="ip.flags.mf" showname="..0. .... .... .... = More fragments: Not set" size="2" pos="20" show="0" value="0" unmaskedvalue="007a"/>
      <field name="ip.frag_offset" showname="...0 0000 0111 1010 = Fragment offset: 122" size="2" pos="20" show="122" value="7A" unmaskedvalue="007a"/>
    </field>
    <field name="ip.ttl" showname="Time to live: 64" size="1" pos="22" show="64" value="40"/>
    <field name="ip.proto" showname="Protocol: ICMP (1)" size="1" pos="23" show="1" value="01"/>
    <field name="ip.checksum" showname="Header checksum: 0xbcea [validation disabled]" size="2" pos="24" show="0x0000bcea" value="bcea"/>
    <field name="ip.checksum.status" showname="Header checksum status: Unverified" size="0" pos="24" show="2"/>
    <field name="ip.src" showname="Source: 2.1.1.2" size="4" pos="26" show="2.1.1.2" value="02010102"/>
    <field name="ip.addr" showname="Source or Destination Address: 2.1.1.2" hide="yes" size="4" pos="26" show="2.1.1.2" value="02010102"/>
    <field name="ip.src_host" showname="Source Host: 2.1.1.2" hide="yes" size="4" pos="26" show="2.1.1.2" value="02010102"/>
    <field name="ip.host" showname="Source or Destination Host: 2.1.1.2" hide="yes" size="4" pos="26" show="2.1.1.2" value="02010102"/>
    <field name="ip.dst" showname="Destination: 2.1.1.1" size="4" pos="30" show="2.1.1.1" value="02010101"/>
    <field name="ip.addr" showname="Source or Destination Address: 2.1.1.1" hide="yes" size="4" pos="30" show="2.1.1.1" value="02010101"/>
    <field name="ip.dst_host" showname="Destination Host: 2.1.1.1" hide="yes" size="4" pos="30" show="2.1.1.1" value="02010101"/>
    <field name="ip.host" showname="Source or Destination Host: 2.1.1.1" hide="yes" size="4" pos="30" show="2.1.1.1" value="02010101"/>
    <field name="ip.fragments" showname="2 IPv4 Fragments (1408 bytes): #1(976), #2(432)" size="1408" pos="14" show="08:00:4d:71:13:c2:00:01:14:2b:d2:59:00:00:00:00:3d:2a:08:00:00:00:00:00:10:11:12:13:14:15:16:17:18:19:1a:1b:1c:1d:1e:1f:20:21:22:23:24:25:26:27:28:29:2a:2b:2c:2d:2e:2f:30:31:32:33:34:35:36:37:38:39:3a:3b:3c:3d:3e:3f:40:41:42:43:44:45:46:47:48:49:4a:4b:4c:4d:4e:4f:50:51:52:53:54:55:56:57:58:59:5a:5b:5c:5d:5e:5f:60:61:62:63:64:65:66:67:68:69:6a:6b:6c:6d:6e:6f:70:71:72:73:74:75:76:77:78:79:7a:7b:7c:7d:7e:7f:80:81:82:83:84:85:86:87:88:89:8a:8b:8c:8d:8e:8f:90:91:92:93:94:95:96:97:98:99:9a:9b:9c:9d:9e:9f:a0:a1:a2:a3:a4:a5:a6:a7:a8:a9:aa:ab:ac:ad:ae:af:b0:b1:b2:b3:b4:b5:b6:b7:b8:b9:ba:bb:bc:bd:be:bf:c0:c1:c2:c3:c4:c5:c6:c7:c8:c9:ca:cb:cc:cd:ce:cf:d0:d1:d2:d3:d4:d5:d6:d7:d8:d9:da:db:dc:dd:de:df:e0:e1:e2:e3:e4:e5:e6:e7:e8:e9:ea:eb:ec:ed:ee:ef:f0:f1:f2:f3:f4:f5:f6:f7:f8:f9:fa:fb:fc:fd:fe:ff:00:01:02:03:04:05:06:07:08:09:0a:0b:0c:0d:0e:0f:10:11:12:13:14:15:16:17:18:19:1a:1b:1c:1d:1e:1f:20:21:22:23:24:25:26:27:28:29:2a:2b:2c:2d:2e:2f:30:31:32:33:34:35:36:37:38:39:3a:3b:3c:3d:3e:3f:40:41:42:43:44:45:46:47:48:49:4a:4b:4c:4d:4e:4f:50:51:52:53:54:55:56:57:58:59:5a:5b:5c:5d:5e:5f:60:61:62:63:64:65:66:67:68:69:6a:6b:6c:6d:6e:6f:70:71:72:73:74:75:76:77:78:79:7a:7b:7c:7d:7e:7f:80:81:82:83:84:85:86:87:88:89:8a:8b:8c:8d:8e:8f:90:91:92:93:94:95:96:97:98:99:9a:9b:9c:9d:9e:9f:a0:a1:a2:a3:a4:a5:a6:a7:a8:a9:aa:ab:ac:ad:ae:af:b0:b1:b2:b3:b4:b5:b6:b7:b8:b9:ba:bb:bc:bd:be:bf:c0:c1:c2:c3:c4:c5:c6:c7:c8:c9:ca:cb:cc:cd:ce:cf:d0:d1:d2:d3:d4:d5:d6:d7:d8:d9:da:db:dc:dd:de:df:e0:e1:e2:e3:e4:e5:e6:e7:e8:e9:ea:eb:ec:ed:ee:ef:f0:f1:f2:f3:f4:f5:f6:f7:f8:f9:fa:fb:fc:fd:fe:ff:00:01:02:03:04:05:06:07:08:09:0a:0b:0c:0d:0e:0f:10:11:12:13:14:15:16:17:18:19:1a:1b:1c:1d:1e:1f:20:21:22:23:24:25:26:27:28:29:2a:2b:2c:2d:2e:2f:30:31:32:33:34:35:36:37:38:39:3a:3b:3c:3d:3e:3f:40:41:42:43:44:45:46:47:48:49:4a:4b:4c:4d:4e:4f:50:51:52:53:54:55:56:57:58:59:5a:5b:5c:5d:5e:5f:60:61:62:63:64:65:66:67:68:69:6a:6b:6c:6d:6e:6f:70:71:72:73:74:75:76:77:78:79:7a:7b:7c:7d:7e:7f:80:81:82:83:84:85:86:87:88:89:8a:8b:8c:8d:8e:8f:90:91:92:93:94:95:96:97:98:99:9a:9b:9c:9d:9e:9f:a0:a1:a2:a3:a4:a5:a6:a7:a8:a9:aa:ab:ac:ad:ae:af:b0:b1:b2:b3:b4:b5:b6:b7:b8:b9:ba:bb:bc:bd:be:bf:c0:c1:c2:c3:c4:c5:c6:c7:c8:c9:ca:cb:cc:cd:ce:cf:d0:d1:d2:d3:d4:d5:d6:d7:d8:d9:da:db:dc:dd:de:df:e0:e1:e2:e3:e4:e5:e6:e7:e8:e9:ea:eb:ec:ed:ee:ef:f0:f1:f2:f3:f4:f5:f6:f7:f8:f9:fa:fb:fc:fd:fe:ff:00:01:02:03:04:05:06:07:08:09:0a:0b:0c:0d:0e:0f:10:11:12:13:14:15:16:17:18:19:1a:1b:1c:1d:1e:1f:20:21:22:23:24:25:26:27:28:29:2a:2b:2c:2d:2e:2f:30:31:32:33:34:35:36:37:38:39:3a:3b:3c:3d:3e:3f:40:41:42:43:44:45:46:47:48:49:4a:4b:4c:4d:4e:4f:50:51:52:53:54:55:56:57:58:59:5a:5b:5c:5d:5e:5f:60:61:62:63:64:65:66:67:68:69:6a:6b:6c:6d:6e:6f:70:71:72:73:74:75:76:77:78:79:7a:7b:7c:7d:7e:7f:80:81:82:83:84:85:86:87:88:89:8a:8b:8c:8d:8e:8f:90:91:92:93:94:95:96:97:98:99:9a:9b:9c:9d:9e:9f:a0:a1:a2:a3:a4:a5:a6:a7:a8:a9:aa:ab:ac:ad:ae:af:b0:b1:b2:b3:b4:b5:b6:b7:b8:b9:ba:bb:bc:bd:be:bf:c0:c1:c2:c3:c4:c5:c6:c7:c8:c9:ca:cb:cc:cd:ce:cf:d0:d1:d2:d3:d4:d5:d6:d7:d8:d9:da:db:dc:dd:de:df:e0:e1:e2:e3:e4:e5:e6:e7:e8:e9:ea:eb:ec:ed:ee:ef:f0:f1:f2:f3:f4:f5:f6:f7:f8:f9:fa:fb:fc:fd:fe:ff:00:01:02:03:04:05:06:07:08:09:0a:0b:0c:0d:0e:0f:10:11:12:13:14:15:16:17:18:19:1a:1b:1c:1d:1e:1f:20:21:22:23:24:25:26:27:28:29:2a:2b:2c:2d:2e:2f:30:31:32:33:34:35:36:37:38:39:3a:3b:3c:3d:3e:3f:40:41:42:43:44:45:46:47:48:49:4a:4b:4c:4d:4e:4f:50:51:52:53:54:55:56:57:58:59:5a:5b:5c:5d:5e:5f:60:61:62:63:64:65:66:67:68:69:6a:6b:6c:6d:6e:6f:70:71:72:73:74:75:76:77:78:79:7a:7b:7c:7d:7e:7f:80:81:82:83:84:85:86:87:88:89:8a:8b:8c:8d:8e:8f:90:91:92:93:94:95:96:97:98:99:9a:9b:9c:9d:9e:9f:a0:a1:a2:a3:a4:a5:a6:a7:a8:a9:aa:ab:ac:ad:ae:af:b0:b1:b2:b3:b4:b5:b6:b7:b8:b9:ba:bb:bc:bd:be:bf:c0:c1:c2:c3:c4:c5:c6:c7:c8:c9:ca:cb:cc:cd:ce:cf:d0:d1:d2:d3:d4:d5:d6:d7:d8:d9:da:db:dc:dd:de:df:e0:e1:e2:e3:e4:e5:e6:e7:e8:e9:ea:eb:ec:ed:ee:ef:f0:f1:f2:f3:f4:f5:f6:f7:f8:f9:fa:fb:fc:fd:fe:ff:00:01:02:03:04:05:06:07:08:09:0a:0b:0c:0d:0e:0f:10:11:12:13:14:15:16:17:18:19:1a:1b:1c:1d:1e:1f:20:21:22:23:24:25:26:27:28:29:2a:2b:2c:2d:2e:2f:30:31:32:33:34:35:36:37:38:39:3a:3b:3c:3d:3e:3f:40:41:42:43:44:45:46:47:48:49:4a:4b:4c:4d:4e:4f:50:51:52:53:54:55:56:57:58:59:5a:5b:5c:5d:5e:5f:60:61:62:63:64:65:66:67:68:69:6a:6b:6c:6d:6e:6f:70:71:72:73:74:75:76:77" value="08004d7113c20001142bd259000000003d2a080000000000101112131415161718191a1b1c1d1e1f202122232425262728292a2b2c2d2e2f303132333435363738393a3b3c3d3e3f404142434445464748494a4b4c4d4e4f505152535455565758595a5b5c5d5e5f606162636465666768696a6b6c6d6e6f707172737475767778797a7b7c7d7e7f808182838485868788898a8b8c8d8e8f909192939495969798999a9b9c9d9e9fa0a1a2a3a4a5a6a7a8a9aaabacadaeafb0b1b2b3b4b5b6b7b8b9babbbcbdbebfc0c1c2c3c4c5c6c7c8c9cacbcccdcecfd0d1d2d3d4d5d6d7d8d9dadbdcdddedfe0e1e2e3e4e5e6e7e8e9eaebecedeeeff0f1f2f3f4f5f6f7f8f9fafbfcfdfeff000102030405060708090a0b0c0d0e0f101112131415161718191a1b1c1d1e1f202122232425262728292a2b2c2d2e2f303132333435363738393a3b3c3d3e3f404142434445464748494a4b4c4d4e4f505152535455565758595a5b5c5d5e5f606162636465666768696a6b6c6d6e6f707172737475767778797a7b7c7d7e7f808182838485868788898a8b8c8d8e8f909192939495969798999a9b9c9d9e9fa0a1a2a3a4a5a6a7a8a9aaabacadaeafb0b1b2b3b4b5b6b7b8b9babbbcbdbebfc0c1c2c3c4c5c6c7c8c9cacbcccdcecfd0d1d2d3d4d5d6d7d8d9dadbdcdddedfe0e1e2e3e4e5e6e7e8e9eaebecedeeeff0f1f2f3f4f5f6f7f8f9fafbfcfdfeff000102030405060708090a0b0c0d0e0f101112131415161718191a1b1c1d1e1f202122232425262728292a2b2c2d2e2f303132333435363738393a3b3c3d3e3f404142434445464748494a4b4c4d4e4f505152535455565758595a5b5c5d5e5f606162636465666768696a6b6c6d6e6f707172737475767778797a7b7c7d7e7f808182838485868788898a8b8c8d8e8f909192939495969798999a9b9c9d9e9fa0a1a2a3a4a5a6a7a8a9aaabacadaeafb0b1b2b3b4b5b6b7b8b9babbbcbdbebfc0c1c2c3c4c5c6c7c8c9cacbcccdcecfd0d1d2d3d4d5d6d7d8d9dadbdcdddedfe0e1e2e3e4e5e6e7e8e9eaebecedeeeff0f1f2f3f4f5f6f7f8f9fafbfcfdfeff000102030405060708090a0b0c0d0e0f101112131415161718191a1b1c1d1e1f202122232425262728292a2b2c2d2e2f303132333435363738393a3b3c3d3e3f404142434445464748494a4b4c4d4e4f505152535455565758595a5b5c5d5e5f606162636465666768696a6b6c6d6e6f707172737475767778797a7b7c7d7e7f808182838485868788898a8b8c8d8e8f909192939495969798999a9b9c9d9e9fa0a1a2a3a4a5a6a7a8a9aaabacadaeafb0b1b2b3b4b5b6b7b8b9babbbcbdbebfc0c1c2c3c4c5c6c7c8c9cacbcccdcecfd0d1d2d3d4d5d6d7d8d9dadbdcdddedfe0e1e2e3e4e5e6e7e8e9eaebecedeeeff0f1f2f3f4f5f6f7f8f9fafbfcfdfeff000102030405060708090a0b0c0d0e0f101112131415161718191a1b1c1d1e1f202122232425262728292a2b2c2d2e2f303132333435363738393a3b3c3d3e3f404142434445464748494a4b4c4d4e4f505152535455565758595a5b5c5d5e5f606162636465666768696a6b6c6d6e6f707172737475767778797a7b7c7d7e7f808182838485868788898a8b8c8d8e8f909192939495969798999a9b9c9d9e9fa0a1a2a3a4a5a6a7a8a9aaabacadaeafb0b1b2b3b4b5b6b7b8b9babbbcbdbebfc0c1c2c3c4c5c6c7c8c9cacbcccdcecfd0d1d2d3d4d5d6d7d8d9dadbdcdddedfe0e1e2e3e4e5e6e7e8e9eaebecedeeeff0f1f2f3f4f5f6f7f8f9fafbfcfdfeff000102030405060708090a0b0c0d0e0f101112131415161718191a1b1c1d1e1f202122232425262728292a2b2c2d2e2f303132333435363738393a3b3c3d3e3f404142434445464748494a4b4c4d4e4f505152535455565758595a5b5c5d5e5f606162636465666768696a6b6c6d6e6f7071727374757677">
      <field name="ip.fragment" showname="Frame: 1, payload: 0-975 (976 bytes)" size="976" pos="0" show="1" value="08004d7113c20001142bd259000000003d2a080000000000101112131415161718191a1b1c1d1e1f202122232425262728292a2b2c2d2e2f303132333435363738393a3b3c3d3e3f404142434445464748494a4b4c4d4e4f505152535455565758595a5b5c5d5e5f606162636465666768696a6b6c6d6e6f707172737475767778797a7b7c7d7e7f808182838485868788898a8b8c8d8e8f909192939495969798999a9b9c9d9e9fa0a1a2a3a4a5a6a7a8a9aaabacadaeafb0b1b2b3b4b5b6b7b8b9babbbcbdbebfc0c1c2c3c4c5c6c7c8c9cacbcccdcecfd0d1d2d3d4d5d6d7d8d9dadbdcdddedfe0e1e2e3e4e5e6e7e8e9eaebecedeeeff0f1f2f3f4f5f6f7f8f9fafbfcfdfeff000102030405060708090a0b0c0d0e0f101112131415161718191a1b1c1d1e1f202122232425262728292a2b2c2d2e2f303132333435363738393a3b3c3d3e3f404142434445464748494a4b4c4d4e4f505152535455565758595a5b5c5d5e5f606162636465666768696a6b6c6d6e6f707172737475767778797a7b7c7d7e7f808182838485868788898a8b8c8d8e8f909192939495969798999a9b9c9d9e9fa0a1a2a3a4a5a6a7a8a9aaabacadaeafb0b1b2b3b4b5b6b7b8b9babbbcbdbebfc0c1c2c3c4c5c6c7c8c9cacbcccdcecfd0d1d2d3d4d5d6d7d8d9dadbdcdddedfe0e1e2e3e4e5e6e7e8e9eaebecedeeeff0f1f2f3f4f5f6f7f8f9fafbfcfdfeff000102030405060708090a0b0c0d0e0f101112131415161718191a1b1c1d1e1f202122232425262728292a2b2c2d2e2f303132333435363738393a3b3c3d3e3f404142434445464748494a4b4c4d4e4f505152535455565758595a5b5c5d5e5f606162636465666768696a6b6c6d6e6f707172737475767778797a7b7c7d7e7f808182838485868788898a8b8c8d8e8f909192939495969798999a9b9c9d9e9fa0a1a2a3a4a5a6a7a8a9aaabacadaeafb0b1b2b3b4b5b6b7b8b9babbbcbdbebfc0c1c2c3c4c5c6c7c8c9cacbcccdcecfd0d1d2d3d4d5d6d7d8d9dadbdcdddedfe0e1e2e3e4e5e6e7e8e9eaebecedeeeff0f1f2f3f4f5f6f7f8f9fafbfcfdfeff000102030405060708090a0b0c0d0e0f101112131415161718191a1b1c1d1e1f202122232425262728292a2b2c2d2e2f303132333435363738393a3b3c3d3e3f404142434445464748494a4b4c4d4e4f505152535455565758595a5b5c5d5e5f606162636465666768696a6b6c6d6e6f707172737475767778797a7b7c7d7e7f808182838485868788898a8b8c8d8e8f909192939495969798999a9b9c9d9e9fa0a1a2a3a4a5a6a7a8a9aaabacadaeafb0b1b2b3b4b5b6b7b8b9babbbcbdbebfc0c1c2c3c4c5c6c7"/>
      <field name="ip.fragment" showname="Frame: 2, payload: 976-1407 (432 bytes)" size="432" pos="976" show="2" value="c8c9cacbcccdcecfd0d1d2d3d4d5d6d7d8d9dadbdcdddedfe0e1e2e3e4e5e6e7e8e9eaebecedeeeff0f1f2f3f4f5f6f7f8f9fafbfcfdfeff000102030405060708090a0b0c0d0e0f101112131415161718191a1b1c1d1e1f202122232425262728292a2b2c2d2e2f303132333435363738393a3b3c3d3e3f404142434445464748494a4b4c4d4e4f505152535455565758595a5b5c5d5e5f606162636465666768696a6b6c6d6e6f707172737475767778797a7b7c7d7e7f808182838485868788898a8b8c8d8e8f909192939495969798999a9b9c9d9e9fa0a1a2a3a4a5a6a7a8a9aaabacadaeafb0b1b2b3b4b5b6b7b8b9babbbcbdbebfc0c1c2c3c4c5c6c7c8c9cacbcccdcecfd0d1d2d3d4d5d6d7d8d9dadbdcdddedfe0e1e2e3e4e5e6e7e8e9eaebecedeeeff0f1f2f3f4f5f6f7f8f9fafbfcfdfeff000102030405060708090a0b0c0d0e0f101112131415161718191a1b1c1d1e1f202122232425262728292a2b2c2d2e2f303132333435363738393a3b3c3d3e3f404142434445464748494a4b4c4d4e4f505152535455565758595a5b5c5d5e5f606162636465666768696a6b6c6d6e6f7071727374757677"/>
      <field name="ip.fragment.count" showname="Fragment count: 2" size="0" pos="0" show="2"/>
      <field name="ip.reassembled.length" showname="Reassembled IPv4 length: 1408" size="0" pos="0" show="1408"/>
      <field name="ip.reassembled.data" showname="Reassembled IPv4 data: 08004d7113c20001142bd259000000003d2a080000000000..." size="1408" pos="0" show="08:00:4d:71:13:c2:00:01:14:2b:d2:59:00:00:00:00:3d:2a:08:00:00:00:00:00:10:11:12:13:14:15:16:17:18:19:1a:1b:1c:1d:1e:1f:20:21:22:23:24:25:26:27:28:29:2a:2b:2c:2d:2e:2f:30:31:32:33:34:35:36:37:38:39:3a:3b:3c:3d:3e:3f:40:41:42:43:44:45:46:47:48:49:4a:4b:4c:4d:4e:4f:50:51:52:53:54:55:56:57:58:59:5a:5b:5c:5d:5e:5f:60:61:62:63:64:65:66:67:68:69:6a:6b:6c:6d:6e:6f:70:71:72:73:74:75:76:77:78:79:7a:7b:7c:7d:7e:7f:80:81:82:83:84:85:86:87:88:89:8a:8b:8c:8d:8e:8f:90:91:92:93:94:95:96:97:98:99:9a:9b:9c:9d:9e:9f:a0:a1:a2:a3:a4:a5:a6:a7:a8:a9:aa:ab:ac:ad:ae:af:b0:b1:b2:b3:b4:b5:b6:b7:b8:b9:ba:bb:bc:bd:be:bf:c0:c1:c2:c3:c4:c5:c6:c7:c8:c9:ca:cb:cc:cd:ce:cf:d0:d1:d2:d3:d4:d5:d6:d7:d8:d9:da:db:dc:dd:de:df:e0:e1:e2:e3:e4:e5:e6:e7:e8:e9:ea:eb:ec:ed:ee:ef:f0:f1:f2:f3:f4:f5:f6:f7:f8:f9:fa:fb:fc:fd:fe:ff:00:01:02:03:04:05:06:07:08:09:0a:0b:0c:0d:0e:0f:10:11:12:13:14:15:16:17:18:19:1a:1b:1c:1d:1e:1f:20:21:22:23:24:25:26:27:28:29:2a:2b:2c:2d:2e:2f:30:31:32:33:34:35:36:37:38:39:3a:3b:3c:3d:3e:3f:40:41:42:43:44:45:46:47:48:49:4a:4b:4c:4d:4e:4f:50:51:52:53:54:55:56:57:58:59:5a:5b:5c:5d:5e:5f:60:61:62:63:64:65:66:67:68:69:6a:6b:6c:6d:6e:6f:70:71:72:73:74:75:76:77:78:79:7a:7b:7c:7d:7e:7f:80:81:82:83:84:85:86:87:88:89:8a:8b:8c:8d:8e:8f:90:91:92:93:94:95:96:97:98:99:9a:9b:9c:9d:9e:9f:a0:a1:a2:a3:a4:a5:a6:a7:a8:a9:aa:ab:ac:ad:ae:af:b0:b1:b2:b3:b4:b5:b6:b7:b8:b9:ba:bb:bc:bd:be:bf:c0:c1:c2:c3:c4:c5:c6:c7:c8:c9:ca:cb:cc:cd:ce:cf:d0:d1:d2:d3:d4:d5:d6:d7:d8:d9:da:db:dc:dd:de:df:e0:e1:e2:e3:e4:e5:e6:e7:e8:e9:ea:eb:ec:ed:ee:ef:f0:f1:f2:f3:f4:f5:f6:f7:f8:f9:fa:fb:fc:fd:fe:ff:00:01:02:03:04:05:06:07:08:09:0a:0b:0c:0d:0e:0f:10:11:12:13:14:15:16:17:18:19:1a:1b:1c:1d:1e:1f:20:21:22:23:24:25:26:27:28:29:2a:2b:2c:2d:2e:2f:30:31:32:33:34:35:36:37:38:39:3a:3b:3c:3d:3e:3f:40:41:42:43:44:45:46:47:48:49:4a:4b:4c:4d:4e:4f:50:51:52:53:54:55:56:57:58:59:5a:5b:5c:5d:5e:5f:60:61:62:63:64:65:66:67:68:69:6a:6b:6c:6d:6e:6f:70:71:72:73:74:75:76:77:78:79:7a:7b:7c:7d:7e:7f:80:81:82:83:84:85:86:87:88:89:8a:8b:8c:8d:8e:8f:90:91:92:93:94:95:96:97:98:99:9a:9b:9c:9d:9e:9f:a0:a1:a2:a3:a4:a5:a6:a7:a8:a9:aa:ab:ac:ad:ae:af:b0:b1:b2:b3:b4:b5:b6:b7:b8:b9:ba:bb:bc:bd:be:bf:c0:c1:c2:c3:c4:c5:c6:c7:c8:c9:ca:cb:cc:cd:ce:cf:d0:d1:d2:d3:d4:d5:d6:d7:d8:d9:da:db:dc:dd:de:df:e0:e1:e2:e3:e4:e5:e6:e7:e8:e9:ea:eb:ec:ed:ee:ef:f0:f1:f2:f3:f4:f5:f6:f7:f8:f9:fa:fb:fc:fd:fe:ff:00:01:02:03:04:05:06:07:08:09:0a:0b:0c:0d:0e:0f:10:11:12:13:14:15:16:17:18:19:1a:1b:1c:1d:1e:1f:20:21:22:23:24:25:26:27:28:29:2a:2b:2c:2d:2e:2f:30:31:32:33:34:35:36:37:38:39:3a:3b:3c:3d:3e:3f:40:41:42:43:44:45:46:47:48:49:4a:4b:4c:4d:4e:4f:50:51:52:53:54:55:56:57:58:59:5a:5b:5c:5d:5e:5f:60:61:62:63:64:65:66:67:68:69:6a:6b:6c:6d:6e:6f:70:71:72:73:74:75:76:77:78:79:7a:7b:7c:7d:7e:7f:80:81:82:83:84:85:86:87:88:89:8a:8b:8c:8d:8e:8f:90:91:92:93:94:95:96:97:98:99:9a:9b:9c:9d:9e:9f:a0:a1:a2:a3:a4:a5:a6:a7:a8:a9:aa:ab:ac:ad:ae:af:b0:b1:b2:b3:b4:b5:b6:b7:b8:b9:ba:bb:bc:bd:be:bf:c0:c1:c2:c3:c4:c5:c6:c7:c8:c9:ca:cb:cc:cd:ce:cf:d0:d1:d2:d3:d4:d5:d6:d7:d8:d9:da:db:dc:dd:de:df:e0:e1:e2:e3:e4:e5:e6:e7:e8:e9:ea:eb:ec:ed:ee:ef:f0:f1:f2:f3:f4:f5:f6:f7:f8:f9:fa:fb:fc:fd:fe:ff:00:01:02:03:04:05:06:07:08:09:0a:0b:0c:0d:0e:0f:10:11:12:13:14:15:16:17:18:19:1a:1b:1c:1d:1e:1f:20:21:22:23:24:25:26:27:28:29:2a:2b:2c:2d:2e:2f:30:31:32:33:34:35:36:37:38:39:3a:3b:3c:3d:3e:3f:40:41:42:43:44:45:46:47:48:49:4a:4b:4c:4d:4e:4f:50:51:52:53:54:55:56:57:58:59:5a:5b:5c:5d:5e:5f:60:61:62:63:64:65:66:67:68:69:6a:6b:6c:6d:6e:6f:70:71:72:73:74:75:76:77:78:79:7a:7b:7c:7d:7e:7f:80:81:82:83:84:85:86:87:88:89:8a:8b:8c:8d:8e:8f:90:91:92:93:94:95:96:97:98:99:9a:9b:9c:9d:9e:9f:a0:a1:a2:a3:a4:a5:a6:a7:a8:a9:aa:ab:ac:ad:ae:af:b0:b1:b2:b3:b4:b5:b6:b7:b8:b9:ba:bb:bc:bd:be:bf:c0:c1:c2:c3:c4:c5:c6:c7:c8:c9:ca:cb:cc:cd:ce:cf:d0:d1:d2:d3:d4:d5:d6:d7:d8:d9:da:db:dc:dd:de:df:e0:e1:e2:e3:e4:e5:e6:e7:e8:e9:ea:eb:ec:ed:ee:ef:f0:f1:f2:f3:f4:f5:f6:f7:f8:f9:fa:fb:fc:fd:fe:ff:00:01:02:03:04:05:06:07:08:09:0a:0b:0c:0d:0e:0f:10:11:12:13:14:15:16:17:18:19:1a:1b:1c:1d:1e:1f:20:21:22:23:24:25:26:27:28:29:2a:2b:2c:2d:2e:2f:30:31:32:33:34:35:36:37:38:39:3a:3b:3c:3d:3e:3f:40:41:42:43:44:45:46:47:48:49:4a:4b:4c:4d:4e:4f:50:51:52:53:54:55:56:57:58:59:5a:5b:5c:5d:5e:5f:60:61:62:63:64:65:66:67:68:69:6a:6b:6c:6d:6e:6f:70:71:72:73:74:75:76:77" value="08004d7113c20001142bd259000000003d2a080000000000101112131415161718191a1b1c1d1e1f202122232425262728292a2b2c2d2e2f303132333435363738393a3b3c3d3e3f404142434445464748494a4b4c4d4e4f505152535455565758595a5b5c5d5e5f606162636465666768696a6b6c6d6e6f707172737475767778797a7b7c7d7e7f808182838485868788898a8b8c8d8e8f909192939495969798999a9b9c9d9e9fa0a1a2a3a4a5a6a7a8a9aaabacadaeafb0b1b2b3b4b5b6b7b8b9babbbcbdbebfc0c1c2c3c4c5c6c7c8c9cacbcccdcecfd0d1d2d3d4d5d6d7d8d9dadbdcdddedfe0e1e2e3e4e5e6e7e8e9eaebecedeeeff0f1f2f3f4f5f6f7f8f9fafbfcfdfeff000102030405060708090a0b0c0d0e0f101112131415161718191a1b1c1d1e1f202122232425262728292a2b2c2d2e2f303132333435363738393a3b3c3d3e3f404142434445464748494a4b4c4d4e4f505152535455565758595a5b5c5d5e5f606162636465666768696a6b6c6d6e6f707172737475767778797a7b7c7d7e7f808182838485868788898a8b8c8d8e8f909192939495969798999a9b9c9d9e9fa0a1a2a3a4a5a6a7a8a9aaabacadaeafb0b1b2b3b4b5b6b7b8b9babbbcbdbebfc0c1c2c3c4c5c6c7c8c9cacbcccdcecfd0d1d2d3d4d5d6d7d8d9dadbdcdddedfe0e1e2e3e4e5e6e7e8e9eaebecedeeeff0f1f2f3f4f5f6f7f8f9fafbfcfdfeff000102030405060708090a0b0c0d0e0f101112131415161718191a1b1c1d1e1f202122232425262728292a2b2c2d2e2f303132333435363738393a3b3c3d3e3f404142434445464748494a4b4c4d4e4f505152535455565758595a5b5c5d5e5f606162636465666768696a6b6c6d6e6f707172737475767778797a7b7c7d7e7f808182838485868788898a8b8c8d8e8f909192939495969798999a9b9c9d9e9fa0a1a2a3a4a5a6a7a8a9aaabacadaeafb0b1b2b3b4b5b6b7b8b9babbbcbdbebfc0c1c2c3c4c5c6c7c8c9cacbcccdcecfd0d1d2d3d4d5d6d7d8d9dadbdcdddedfe0e1e2e3e4e5e6e7e8e9eaebecedeeeff0f1f2f3f4f5f6f7f8f9fafbfcfdfeff000102030405060708090a0b0c0d0e0f101112131415161718191a1b1c1d1e1f202122232425262728292a2b2c2d2e2f303132333435363738393a3b3c3d3e3f404142434445464748494a4b4c4d4e4f505152535455565758595a5b5c5d5e5f606162636465666768696a6b6c6d6e6f707172737475767778797a7b7c7d7e7f808182838485868788898a8b8c8d8e8f909192939495969798999a9b9c9d9e9fa0a1a2a3a4a5a6a7a8a9aaabacadaeafb0b1b2b3b4b5b6b7b8b9babbbcbdbebfc0c1c2c3c4c5c6c7c8c9cacbcccdcecfd0d1d2d3d4d5d6d7d8d9dadbdcdddedfe0e1e2e3e4e5e6e7e8e9eaebecedeeeff0f1f2f3f4f5f6f7f8f9fafbfcfdfeff000102030405060708090a0b0c0d0e0f101112131415161718191a1b1c1d1e1f202122232425262728292a2b2c2d2e2f303132333435363738393a3b3c3d3e3f404142434445464748494a4b4c4d4e4f505152535455565758595a5b5c5d5e5f606162636465666768696a6b6c6d6e6f707172737475767778797a7b7c7d7e7f808182838485868788898a8b8c8d8e8f909192939495969798999a9b9c9d9e9fa0a1a2a3a4a5a6a7a8a9aaabacadaeafb0b1b2b3b4b5b6b7b8b9babbbcbdbebfc0c1c2c3c4c5c6c7c8c9cacbcccdcecfd0d1d2d3d4d5d6d7d8d9dadbdcdddedfe0e1e2e3e4e5e6e7e8e9eaebecedeeeff0f1f2f3f4f5f6f7f8f9fafbfcfdfeff000102030405060708090a0b0c0d0e0f101112131415161718191a1b1c1d1e1f202122232425262728292a2b2c2d2e2f303132333435363738393a3b3c3d3e3f404142434445464748494a4b4c4d4e4f505152535455565758595a5b5c5d5e5f606162636465666768696a6b6c6d6e6f7071727374757677"/>
    </field>
  </proto>
  <proto name="icmp" showname="Internet Control Message Protocol" size="1408" pos="0">
    <field name="icmp.type" showname="Type: 8 (Echo (ping) request)" size="1" pos="0" show="8" value="08"/>
    <field name="icmp.code" showname="Code: 0" size="1" pos="1" show="0" value="00"/>
    <field name="icmp.checksum" showname="Checksum: 0x4d71 [correct]" size="2" pos="2" show="0x00004d71" value="4d71"/>
    <field name="icmp.checksum.status" showname="Checksum Status: Good" size="0" pos="2" show="1"/>
    <field name="icmp.ident" showname="Identifier (BE): 5058 (0x13c2)" size="2" pos="4" show="5058" value="13c2"/>
    <field name="icmp.ident" showname="Identifier (LE): 49683 (0xc213)" size="2" pos="4" show="49683" value="13c2"/>
    <field name="icmp.seq" showname="Sequence number (BE): 1 (0x0001)" size="2" pos="6" show="1" value="0001"/>
    <field name="icmp.seq_le" showname="Sequence number (LE): 256 (0x0100)" size="2" pos="6" show="256" value="0001"/>
    <field name="icmp.data_time" showname="Timestamp from icmp data: Oct  2, 2017 08:03:32.000000000 EDT" size="8" pos="8" show="Oct  2, 2017 08:03:32.000000000 EDT" value="142bd25900000000"/>
    <field name="icmp.data_time_relative" showname="Timestamp from icmp data (relative): 0.535197000 seconds" size="8" pos="8" show="0.535197000" value="142bd25900000000"/>
    <field name="data" value="3d2a080000000000101112131415161718191a1b1c1d1e1f202122232425262728292a2b2c2d2e2f303132333435363738393a3b3c3d3e3f404142434445464748494a4b4c4d4e4f505152535455565758595a5b5c5d5e5f606162636465666768696a6b6c6d6e6f707172737475767778797a7b7c7d7e7f808182838485868788898a8b8c8d8e8f909192939495969798999a9b9c9d9e9fa0a1a2a3a4a5a6a7a8a9aaabacadaeafb0b1b2b3b4b5b6b7b8b9babbbcbdbebfc0c1c2c3c4c5c6c7c8c9cacbcccdcecfd0d1d2d3d4d5d6d7d8d9dadbdcdddedfe0e1e2e3e4e5e6e7e8e9eaebecedeeeff0f1f2f3f4f5f6f7f8f9fafbfcfdfeff000102030405060708090a0b0c0d0e0f101112131415161718191a1b1c1d1e1f202122232425262728292a2b2c2d2e2f303132333435363738393a3b3c3d3e3f404142434445464748494a4b4c4d4e4f505152535455565758595a5b5c5d5e5f606162636465666768696a6b6c6d6e6f707172737475767778797a7b7c7d7e7f808182838485868788898a8b8c8d8e8f909192939495969798999a9b9c9d9e9fa0a1a2a3a4a5a6a7a8a9aaabacadaeafb0b1b2b3b4b5b6b7b8b9babbbcbdbebfc0c1c2c3c4c5c6c7c8c9cacbcccdcecfd0d1d2d3d4d5d6d7d8d9dadbdcdddedfe0e1e2e3e4e5e6e7e8e9eaebecedeeeff0f1f2f3f4f5f6f7f8f9fafbfcfdfeff000102030405060708090a0b0c0d0e0f101112131415161718191a1b1c1d1e1f202122232425262728292a2b2c2d2e2f303132333435363738393a3b3c3d3e3f404142434445464748494a4b4c4d4e4f505152535455565758595a5b5c5d5e5f606162636465666768696a6b6c6d6e6f707172737475767778797a7b7c7d7e7f808182838485868788898a8b8c8d8e8f909192939495969798999a9b9c9d9e9fa0a1a2a3a4a5a6a7a8a9aaabacadaeafb0b1b2b3b4b5b6b7b8b9babbbcbdbebfc0c1c2c3c4c5c6c7c8c9cacbcccdcecfd0d1d2d3d4d5d6d7d8d9dadbdcdddedfe0e1e2e3e4e5e6e7e8e9eaebecedeeeff0f1f2f3f4f5f6f7f8f9fafbfcfdfeff000102030405060708090a0b0c0d0e0f101112131415161718191a1b1c1d1e1f202122232425262728292a2b2c2d2e2f303132333435363738393a3b3c3d3e3f404142434445464748494a4b4c4d4e4f505152535455565758595a5b5c5d5e5f606162636465666768696a6b6c6d6e6f707172737475767778797a7b7c7d7e7f808182838485868788898a8b8c8d8e8f909192939495969798999a9b9c9d9e9fa0a1a2a3a4a5a6a7a8a9aaabacadaeafb0b1b2b3b4b5b6b7b8b9babbbcbdbebfc0c1c2c3c4c5c6c7c8c9cacbcccdcecfd0d1d2d3d4d5d6d7d8d9dadbdcdddedfe0e1e2e3e4e5e6e7e8e9eaebecedeeeff0f1f2f3f4f5f6f7f8f9fafbfcfdfeff000102030405060708090a0b0c0d0e0f101112131415161718191a1b1c1d1e1f202122232425262728292a2b2c2d2e2f303132333435363738393a3b3c3d3e3f404142434445464748494a4b4c4d4e4f505152535455565758595a5b5c5d5e5f606162636465666768696a6b6c6d6e6f707172737475767778797a7b7c7d7e7f808182838485868788898a8b8c8d8e8f909192939495969798999a9b9c9d9e9fa0a1a2a3a4a5a6a7a8a9aaabacadaeafb0b1b2b3b4b5b6b7b8b9babbbcbdbebfc0c1c2c3c4c5c6c7c8c9cacbcccdcecfd0d1d2d3d4d5d6d7d8d9dadbdcdddedfe0e1e2e3e4e5e6e7e8e9eaebecedeeeff0f1f2f3f4f5f6f7f8f9fafbfcfdfeff000102030405060708090a0b0c0d0e0f101112131415161718191a1b1c1d1e1f202122232425262728292a2b2c2d2e2f303132333435363738393a3b3c3d3e3f404142434445464748494a4b4c4d4e4f505152535455565758595a5b5c5d5e5f606162636465666768696a6b6c6d6e6f7071727374757677">
      <field name="data.data" showname="Data: 3d2a080000000000101112131415161718191a1b1c1d1e1f..." size="1392" pos="16" show="3d:2a:08:00:00:00:00:00:10:11:12:13:14:15:16:17:18:19:1a:1b:1c:1d:1e:1f:20:21:22:23:24:25:26:27:28:29:2a:2b:2c:2d:2e:2f:30:31:32:33:34:35:36:37:38:39:3a:3b:3c:3d:3e:3f:40:41:42:43:44:45:46:47:48:49:4a:4b:4c:4d:4e:4f:50:51:52:53:54:55:56:57:58:59:5a:5b:5c:5d:5e:5f:60:61:62:63:64:65:66:67:68:69:6a:6b:6c:6d:6e:6f:70:71:72:73:74:75:76:77:78:79:7a:7b:7c:7d:7e:7f:80:81:82:83:84:85:86:87:88:89:8a:8b:8c:8d:8e:8f:90:91:92:93:94:95:96:97:98:99:9a:9b:9c:9d:9e:9f:a0:a1:a2:a3:a4:a5:a6:a7:a8:a9:aa:ab:ac:ad:ae:af:b0:b1:b2:b3:b4:b5:b6:b7:b8:b9:ba:bb:bc:bd:be:bf:c0:c1:c2:c3:c4:c5:c6:c7:c8:c9:ca:cb:cc:cd:ce:cf:d0:d1:d2:d3:d4:d5:d6:d7:d8:d9:da:db:dc:dd:de:df:e0:e1:e2:e3:e4:e5:e6:e7:e8:e9:ea:eb:ec:ed:ee:ef:f0:f1:f2:f3:f4:f5:f6:f7:f8:f9:fa:fb:fc:fd:fe:ff:00:01:02:03:04:05:06:07:08:09:0a:0b:0c:0d:0e:0f:10:11:12:13:14:15:16:17:18:19:1a:1b:1c:1d:1e:1f:20:21:22:23:24:25:26:27:28:29:2a:2b:2c:2d:2e:2f:30:31:32:33:34:35:36:37:38:39:3a:3b:3c:3d:3e:3f:40:41:42:43:44:45:46:47:48:49:4a:4b:4c:4d:4e:4f:50:51:52:53:54:55:56:57:58:59:5a:5b:5c:5d:5e:5f:60:61:62:63:64:65:66:67:68:69:6a:6b:6c:6d:6e:6f:70:71:72:73:74:75:76:77:78:79:7a:7b:7c:7d:7e:7f:80:81:82:83:84:85:86:87:88:89:8a:8b:8c:8d:8e:8f:90:91:92:93:94:95:96:97:98:99:9a:9b:9c:9d:9e:9f:a0:a1:a2:a3:a4:a5:a6:a7:a8:a9:aa:ab:ac:ad:ae:af:b0:b1:b2:b3:b4:b5:b6:b7:b8:b9:ba:bb:bc:bd:be:bf:c0:c1:c2:c3:c4:c5:c6:c7:c8:c9:ca:cb:cc:cd:ce:cf:d0:d1:d2:d3:d4:d5:d6:d7:d8:d9:da:db:dc:dd:de:df:e0:e1:e2:e3:e4:e5:e6:e7:e8:e9:ea:eb:ec:ed:ee:ef:f0:f1:f2:f3:f4:f5:f6:f7:f8:f9:fa:fb:fc:fd:fe:ff:00:01:02:03:04:05:06:07:08:09:0a:0b:0c:0d:0e:0f:10:11:12:13:14:15:16:17:18:19:1a:1b:1c:1d:1e:1f:20:21:22:23:24:25:26:27:28:29:2a:2b:2c:2d:2e:2f:30:31:32:33:34:35:36:37:38:39:3a:3b:3c:3d:3e:3f:40:41:42:43:44:45:46:47:48:49:4a:4b:4c:4d:4e:4f:50:51:52:53:54:55:56:57:58:59:5a:5b:5c:5d:5e:5f:60:61:62:63:64:65:66:67:68:69:6a:6b:6c:6d:6e:6f:70:71:72:73:74:75:76:77:78:79:7a:7b:7c:7d:7e:7f:80:81:82:83:84:85:86:87:88:89:8a:8b:8c:8d:8e:8f:90:91:92:93:94:95:96:97:98:99:9a:9b:9c:9d:9e:9f:a0:a1:a2:a3:a4:a5:a6:a7:a8:a9:aa:ab:ac:ad:ae:af:b0:b1:b2:b3:b4:b5:b6:b7:b8:b9:ba:bb:bc:bd:be:bf:c0:c1:c2:c3:c4:c5:c6:c7:c8:c9:ca:cb:cc:cd:ce:cf:d0:d1:d2:d3:d4:d5:d6:d7:d8:d9:da:db:dc:dd:de:df:e0:e1:e2:e3:e4:e5:e6:e7:e8:e9:ea:eb:ec:ed:ee:ef:f0:f1:f2:f3:f4:f5:f6:f7:f8:f9:fa:fb:fc:fd:fe:ff:00:01:02:03:04:05:06:07:08:09:0a:0b:0c:0d:0e:0f:10:11:12:13:14:15:16:17:18:19:1a:1b:1c:1d:1e:1f:20:21:22:23:24:25:26:27:28:29:2a:2b:2c:2d:2e:2f:30:31:32:33:34:35:36:37:38:39:3a:3b:3c:3d:3e:3f:40:41:42:43:44:45:46:47:48:49:4a:4b:4c:4d:4e:4f:50:51:52:53:54:55:56:57:58:59:5a:5b:5c:5d:5e:5f:60:61:62:63:64:65:66:67:68:69:6a:6b:6c:6d:6e:6f:70:71:72:73:74:75:76:77:78:79:7a:7b:7c:7d:7e:7f:80:81:82:83:84:85:86:87:88:89:8a:8b:8c:8d:8e:8f:90:91:92:93:94:95:96:97:98:99:9a:9b:9c:9d:9e:9f:a0:a1:a2:a3:a4:a5:a6:a7:a8:a9:aa:ab:ac:ad:ae:af:b0:b1:b2:b3:b4:b5:b6:b7:b8:b9:ba:bb:bc:bd:be:bf:c0:c1:c2:c3:c4:c5:c6:c7:c8:c9:ca:cb:cc:cd:ce:cf:d0:d1:d2:d3:d4:d5:d6:d7:d8:d9:da:db:dc:dd:de:df:e0:e1:e2:e3:e4:e5:e6:e7:e8:e9:ea:eb:ec:ed:ee:ef:f0:f1:f2:f3:f4:f5:f6:f7:f8:f9:fa:fb:fc:fd:fe:ff:00:01:02:03:04:05:06:07:08:09:0a:0b:0c:0d:0e:0f:10:11:12:13:14:15:16:17:18:19:1a:1b:1c:1d:1e:1f:20:21:22:23:24:25:26:27:28:29:2a:2b:2c:2d:2e:2f:30:31:32:33:34:35:36:37:38:39:3a:3b:3c:3d:3e:3f:40:41:42:43:44:45:46:47:48:49:4a:4b:4c:4d:4e:4f:50:51:52:53:54:55:56:57:58:59:5a:5b:5c:5d:5e:5f:60:61:62:63:64:65:66:67:68:69:6a:6b:6c:6d:6e:6f:70:71:72:73:74:75:76:77:78:79:7a:7b:7c:7d:7e:7f:80:81:82:83:84:85:86:87:88:89:8a:8b:8c:8d:8e:8f:90:91:92:93:94:95:96:97:98:99:9a:9b:9c:9d:9e:9f:a0:a1:a2:a3:a4:a5:a6:a7:a8:a9:aa:ab:ac:ad:ae:af:b0:b1:b2:b3:b4:b5:b6:b7:b8:b9:ba:bb:bc:bd:be:bf:c0:c1:c2:c3:c4:c5:c6:c7:c8:c9:ca:cb:cc:cd:ce:cf:d0:d1:d2:d3:d4:d5:d6:d7:d8:d9:da:db:dc:dd:de:df:e0:e1:e2:e3:e4:e5:e6:e7:e8:e9:ea:eb:ec:ed:ee:ef:f0:f1:f2:f3:f4:f5:f6:f7:f8:f9:fa:fb:fc:fd:fe:ff:00:01:02:03:04:05:06:07:08:09:0a:0b:0c:0d:0e:0f:10:11:12:13:14:15:16:17:18:19:1a:1b:1c:1d:1e:1f:20:21:22:23:24:25:26:27:28:29:2a:2b:2c:2d:2e:2f:30:31:32:33:34:35:36:37:38:39:3a:3b:3c:3d:3e:3f:40:41:42:43:44:45:46:47:48:49:4a:4b:4c:4d:4e:4f:50:51:52:53:54:55:56:57:58:59:5a:5b:5c:5d:5e:5f:60:61:62:63:64:65:66:67:68:69:6a:6b:6c:6d:6e:6f:70:71:72:73:74:75:76:77" value="3d2a080000000000101112131415161718191a1b1c1d1e1f202122232425262728292a2b2c2d2e2f303132333435363738393a3b3c3d3e3f404142434445464748494a4b4c4d4e4f505152535455565758595a5b5c5d5e5f606162636465666768696a6b6c6d6e6f707172737475767778797a7b7c7d7e7f808182838485868788898a8b8c8d8e8f909192939495969798999a9b9c9d9e9fa0a1a2a3a4a5a6a7a8a9aaabacadaeafb0b1b2b3b4b5b6b7b8b9babbbcbdbebfc0c1c2c3c4c5c6c7c8c9cacbcccdcecfd0d1d2d3d4d5d6d7d8d9dadbdcdddedfe0e1e2e3e4e5e6e7e8e9eaebecedeeeff0f1f2f3f4f5f6f7f8f9fafbfcfdfeff000102030405060708090a0b0c0d0e0f101112131415161718191a1b1c1d1e1f202122232425262728292a2b2c2d2e2f303132333435363738393a3b3c3d3e3f404142434445464748494a4b4c4d4e4f505152535455565758595a5b5c5d5e5f606162636465666768696a6b6c6d6e6f707172737475767778797a7b7c7d7e7f808182838485868788898a8b8c8d8e8f909192939495969798999a9b9c9d9e9fa0a1a2a3a4a5a6a7a8a9aaabacadaeafb0b1b2b3b4b5b6b7b8b9babbbcbdbebfc0c1c2c3c4c5c6c7c8c9cacbcccdcecfd0d1d2d3d4d5d6d7d8d9dadbdcdddedfe0e1e2e3e4e5e6e7e8e9eaebecedeeeff0f1f2f3f4f5f6f7f8f9fafbfcfdfeff000102030405060708090a0b0c0d0e0f101112131415161718191a1b1c1d1e1f202122232425262728292a2b2c2d2e2f303132333435363738393a3b3c3d3e3f404142434445464748494a4b4c4d4e4f505152535455565758595a5b5c5d5e5f606162636465666768696a6b6c6d6e6f707172737475767778797a7b7c7d7e7f808182838485868788898a8b8c8d8e8f909192939495969798999a9b9c9d9e9fa0a1a2a3a4a5a6a7a8a9aaabacadaeafb0b1b2b3b4b5b6b7b8b9babbbcbdbebfc0c1c2c3c4c5c6c7c8c9cacbcccdcecfd0d1d2d3d4d5d6d7d8d9dadbdcdddedfe0e1e2e3e4e5e6e7e8e9eaebecedeeeff0f1f2f3f4f5f6f7f8f9fafbfcfdfeff000102030405060708090a0b0c0d0e0f101112131415161718191a1b1c1d1e1f202122232425262728292a2b2c2d2e2f303132333435363738393a3b3c3d3e3f404142434445464748494a4b4c4d4e4f505152535455565758595a5b5c5d5e5f606162636465666768696a6b6c6d6e6f707172737475767778797a7b7c7d7e7f808182838485868788898a8b8c8d8e8f909192939495969798999a9b9c9d9e9fa0a1a2a3a4a5a6a7a8a9aaabacadaeafb0b1b2b3b4b5b6b7b8b9babbbcbdbebfc0c1c2c3c4c5c6c7c8c9cacbcccdcecfd0d1d2d3d4d5d6d7d8d9dadbdcdddedfe0e1e2e3e4e5e6e7e8e9eaebecedeeeff0f1f2f3f4f5f6f7f8f9fafbfcfdfeff000102030405060708090a0b0c0d0e0f101112131415161718191a1b1c1d1e1f202122232425262728292a2b2c2d2e2f303132333435363738393a3b3c3d3e3f404142434445464748494a4b4c4d4e4f505152535455565758595a5b5c5d5e5f606162636465666768696a6b6c6d6e6f707172737475767778797a7b7c7d7e7f808182838485868788898a8b8c8d8e8f909192939495969798999a9b9c9d9e9fa0a1a2a3a4a5a6a7a8a9aaabacadaeafb0b1b2b3b4b5b6b7b8b9babbbcbdbebfc0c1c2c3c4c5c6c7c8c9cacbcccdcecfd0d1d2d3d4d5d6d7d8d9dadbdcdddedfe0e1e2e3e4e5e6e7e8e9eaebecedeeeff0f1f2f3f4f5f6f7f8f9fafbfcfdfeff000102030405060708090a0b0c0d0e0f101112131415161718191a1b1c1d1e1f202122232425262728292a2b2c2d2e2f303132333435363738393a3b3c3d3e3f404142434445464748494a4b4c4d4e4f505152535455565758595a5b5c5d5e5f606162636465666768696a6b6c6d6e6f7071727374757677"/>
      <field name="data.len" showname="Length: 1392" size="0" pos="16" show="1392"/>
    </field>
  </proto>
</packet>


<packet>
  <proto name="geninfo" pos="0" showname="General information" size="1442">
    <field name="num" pos="0" show="3" showname="Number" value="3" size="1442"/>
    <field name="len" pos="0" show="1442" showname="Frame Length" value="5a2" size="1442"/>
    <field name="caplen" pos="0" show="1442" showname="Captured Length" value="5a2" size="1442"/>
    <field name="timestamp" pos="0" show="Oct  2, 2017 08:03:32.535641000 EDT" showname="Captured Time" value="1506945812.535641000" size="1442"/>
  </proto>
  <proto name="frame" showname="Frame 3: 1442 bytes on wire (11536 bits), 1442 bytes captured (11536 bits)" size="1442" pos="0">
    <field name="frame.encap_type" showname="Encapsulation type: Ethernet (1)" size="0" pos="0" show="1"/>
    <field name="frame.time" showname="Arrival Time: Oct  2, 2017 08:03:32.535641000 EDT" size="0" pos="0" show="Oct  2, 2017 08:03:32.535641000 EDT"/>
    <field name="frame.offset_shift" showname="Time shift for this packet: 0.000000000 seconds" size="0" pos="0" show="0.000000000"/>
    <field name="frame.time_epoch" showname="Epoch Time: 1506945812.535641000 seconds" size="0" pos="0" show="1506945812.535641000"/>
    <field name="frame.time_delta" showname="Time delta from previous captured frame: 0.000444000 seconds" size="0" pos="0" show="0.000444000"/>
    <field name="frame.time_delta_displayed" showname="Time delta from previous displayed frame: 0.000444000 seconds" size="0" pos="0" show="0.000444000"/>
    <field name="frame.time_relative" showname="Time since reference or first frame: 0.000509000 seconds" size="0" pos="0" show="0.000509000"/>
    <field name="frame.number" showname="Frame Number: 3" size="0" pos="0" show="3"/>
    <field name="frame.len" showname="Frame Length: 1442 bytes (11536 bits)" size="0" pos="0" show="1442"/>
    <field name="frame.cap_len" showname="Capture Length: 1442 bytes (11536 bits)" size="0" pos="0" show="1442"/>
    <field name="frame.marked" showname="Frame is marked: False" size="0" pos="0" show="0"/>
    <field name="frame.ignored" showname="Frame is ignored: False" size="0" pos="0" show="0"/>
    <field name="frame.protocols" showname="Protocols in frame: eth:ethertype:ip:icmp:data" size="0" pos="0" show="eth:ethertype:ip:icmp:data"/>
  </proto>
  <proto name="eth" showname="Ethernet II, Src: PcsCompu_e2:9f:a6 (08:00:27:e2:9f:a6), Dst: PcsCompu_fc:6a:c9 (08:00:27:fc:6a:c9)" size="14" pos="0">
    <field name="eth.dst" showname="Destination: PcsCompu_fc:6a:c9 (08:00:27:fc:6a:c9)" size="6" pos="0" show="08:00:27:fc:6a:c9" value="080027fc6ac9">
      <field name="eth.dst_resolved" showname="Destination (resolved): PcsCompu_fc:6a:c9" hide="yes" size="6" pos="0" show="PcsCompu_fc:6a:c9" value="080027fc6ac9"/>
      <field name="eth.addr" showname="Address: PcsCompu_fc:6a:c9 (08:00:27:fc:6a:c9)" size="6" pos="0" show="08:00:27:fc:6a:c9" value="080027fc6ac9"/>
      <field name="eth.addr_resolved" showname="Address (resolved): PcsCompu_fc:6a:c9" hide="yes" size="6" pos="0" show="PcsCompu_fc:6a:c9" value="080027fc6ac9"/>
      <field name="eth.lg" showname=".... ..0. .... .... .... .... = LG bit: Globally unique address (factory default)" size="3" pos="0" show="0" value="0" unmaskedvalue="080027"/>
      <field name="eth.ig" showname=".... ...0 .... .... .... .... = IG bit: Individual address (unicast)" size="3" pos="0" show="0" value="0" unmaskedvalue="080027"/>
    </field>
    <field name="eth.src" showname="Source: PcsCompu_e2:9f:a6 (08:00:27:e2:9f:a6)" size="6" pos="6" show="08:00:27:e2:9f:a6" value="080027e29fa6">
      <field name="eth.src_resolved" showname="Source (resolved): PcsCompu_e2:9f:a6" hide="yes" size="6" pos="6" show="PcsCompu_e2:9f:a6" value="080027e29fa6"/>
      <field name="eth.addr" showname="Address: PcsCompu_e2:9f:a6 (08:00:27:e2:9f:a6)" size="6" pos="6" show="08:00:27:e2:9f:a6" value="080027e29fa6"/>
      <field name="eth.addr_resolved" showname="Address (resolved): PcsCompu_e2:9f:a6" hide="yes" size="6" pos="6" show="PcsCompu_e2:9f:a6" value="080027e29fa6"/>
      <field name="eth.lg" showname=".... ..0. .... .... .... .... = LG bit: Globally unique address (factory default)" size="3" pos="6" show="0" value="0" unmaskedvalue="080027"/>
      <field name="eth.ig" showname=".... ...0 .... .... .... .... = IG bit: Individual address (unicast)" size="3" pos="6" show="0" value="0" unmaskedvalue="080027"/>
    </field>
    <field name="eth.type" showname="Type: IPv4 (0x0800)" size="2" pos="12" show="0x00000800" value="0800"/>
  </proto>
  <proto name="ip" showname="Internet Protocol Version 4, Src: 2.1.1.1, Dst: 2.1.1.2" size="20" pos="14">
    <field name="ip.version" showname="0100 .... = Version: 4" size="1" pos="14" show="4" value="4" unmaskedvalue="45"/>
    <field name="ip.hdr_len" showname=".... 0101 = Header Length: 20 bytes (5)" size="1" pos="14" show="20" value="45"/>
    <field name="ip.dsfield" showname="Differentiated Services Field: 0x00 (DSCP: CS0, ECN: Not-ECT)" size="1" pos="15" show="0x00000000" value="00">
      <field name="ip.dsfield.dscp" showname="0000 00.. = Differentiated Services Codepoint: Default (0)" size="1" pos="15" show="0" value="0" unmaskedvalue="00"/>
      <field name="ip.dsfield.ecn" showname=".... ..00 = Explicit Congestion Notification: Not ECN-Capable Transport (0)" size="1" pos="15" show="0" value="0" unmaskedvalue="00"/>
    </field>
    <field name="ip.len" showname="Total Length: 1428" size="2" pos="16" show="1428" value="0594"/>
    <field name="ip.id" showname="Identification: 0x83f6 (33782)" size="2" pos="18" show="0x000083f6" value="83f6"/>
    <field name="ip.flags" showname="Flags: 0x0000" size="2" pos="20" show="0x00000000" value="0000">
      <field name="ip.flags.rb" showname="0... .... .... .... = Reserved bit: Not set" size="2" pos="20" show="0" value="0" unmaskedvalue="0000"/>
      <field name="ip.flags.df" showname=".0.. .... .... .... = Don&#x27;t fragment: Not set" size="2" pos="20" show="0" value="0" unmaskedvalue="0000"/>
      <field name="ip.flags.mf" showname="..0. .... .... .... = More fragments: Not set" size="2" pos="20" show="0" value="0" unmaskedvalue="0000"/>
      <field name="ip.frag_offset" showname="...0 0000 0000 0000 = Fragment offset: 0" size="2" pos="20" show="0" value="0" unmaskedvalue="0000"/>
    </field>
    <field name="ip.ttl" showname="Time to live: 64" size="1" pos="22" show="64" value="40"/>
    <field name="ip.proto" showname="Protocol: ICMP (1)" size="1" pos="23" show="1" value="01"/>
    <field name="ip.checksum" showname="Header checksum: 0xeb6e [validation disabled]" size="2" pos="24" show="0x0000eb6e" value="eb6e"/>
    <field name="ip.checksum.status" showname="Header checksum status: Unverified" size="0" pos="24" show="2"/>
    <field name="ip.src" showname="Source: 2.1.1.1" size="4" pos="26" show="2.1.1.1" value="02010101"/>
    <field name="ip.addr" showname="Source or Destination Address: 2.1.1.1" hide="yes" size="4" pos="26" show="2.1.1.1" value="02010101"/>
    <field name="ip.src_host" showname="Source Host: 2.1.1.1" hide="yes" size="4" pos="26" show="2.1.1.1" value="02010101"/>
    <field name="ip.host" showname="Source or Destination Host: 2.1.1.1" hide="yes" size="4" pos="26" show="2.1.1.1" value="02010101"/>
    <field name="ip.dst" showname="Destination: 2.1.1.2" size="4" pos="30" show="2.1.1.2" value="02010102"/>
    <field name="ip.addr" showname="Source or Destination Address: 2.1.1.2" hide="yes" size="4" pos="30" show="2.1.1.2" value="02010102"/>
    <field name="ip.dst_host" showname="Destination Host: 2.1.1.2" hide="yes" size="4" pos="30" show="2.1.1.2" value="02010102"/>
    <field name="ip.host" showname="Source or Destination Host: 2.1.1.2" hide="yes" size="4" pos="30" show="2.1.1.2" value="02010102"/>
  </proto>
  <proto name="icmp" showname="Internet Control Message Protocol" size="1408" pos="34">
    <field name="icmp.type" showname="Type: 0 (Echo (ping) reply)" size="1" pos="34" show="0" value="00"/>
    <field name="icmp.code" showname="Code: 0" size="1" pos="35" show="0" value="00"/>
    <field name="icmp.checksum" showname="Checksum: 0x5571 [correct]" size="2" pos="36" show="0x00005571" value="5571"/>
    <field name="icmp.checksum.status" showname="Checksum Status: Good" size="0" pos="36" show="1"/>
    <field name="icmp.ident" showname="Identifier (BE): 5058 (0x13c2)" size="2" pos="38" show="5058" value="13c2"/>
    <field name="icmp.ident" showname="Identifier (LE): 49683 (0xc213)" size="2" pos="38" show="49683" value="13c2"/>
    <field name="icmp.seq" showname="Sequence number (BE): 1 (0x0001)" size="2" pos="40" show="1" value="0001"/>
    <field name="icmp.seq_le" showname="Sequence number (LE): 256 (0x0100)" size="2" pos="40" show="256" value="0001"/>
    <field name="icmp.resp_to" showname="Request frame: 2" size="0" pos="34" show="2"/>
    <field name="icmp.resptime" showname="Response time: 0.444 ms" size="0" pos="34" show="0.444"/>
    <field name="icmp.data_time" showname="Timestamp from icmp data: Oct  2, 2017 08:03:32.000000000 EDT" size="8" pos="42" show="Oct  2, 2017 08:03:32.000000000 EDT" value="142bd25900000000"/>
    <field name="icmp.data_time_relative" showname="Timestamp from icmp data (relative): 0.535641000 seconds" size="8" pos="42" show="0.535641000" value="142bd25900000000"/>
    <field name="data" value="3d2a080000000000101112131415161718191a1b1c1d1e1f202122232425262728292a2b2c2d2e2f303132333435363738393a3b3c3d3e3f404142434445464748494a4b4c4d4e4f505152535455565758595a5b5c5d5e5f606162636465666768696a6b6c6d6e6f707172737475767778797a7b7c7d7e7f808182838485868788898a8b8c8d8e8f909192939495969798999a9b9c9d9e9fa0a1a2a3a4a5a6a7a8a9aaabacadaeafb0b1b2b3b4b5b6b7b8b9babbbcbdbebfc0c1c2c3c4c5c6c7c8c9cacbcccdcecfd0d1d2d3d4d5d6d7d8d9dadbdcdddedfe0e1e2e3e4e5e6e7e8e9eaebecedeeeff0f1f2f3f4f5f6f7f8f9fafbfcfdfeff000102030405060708090a0b0c0d0e0f101112131415161718191a1b1c1d1e1f202122232425262728292a2b2c2d2e2f303132333435363738393a3b3c3d3e3f404142434445464748494a4b4c4d4e4f505152535455565758595a5b5c5d5e5f606162636465666768696a6b6c6d6e6f707172737475767778797a7b7c7d7e7f808182838485868788898a8b8c8d8e8f909192939495969798999a9b9c9d9e9fa0a1a2a3a4a5a6a7a8a9aaabacadaeafb0b1b2b3b4b5b6b7b8b9babbbcbdbebfc0c1c2c3c4c5c6c7c8c9cacbcccdcecfd0d1d2d3d4d5d6d7d8d9dadbdcdddedfe0e1e2e3e4e5e6e7e8e9eaebecedeeeff0f1f2f3f4f5f6f7f8f9fafbfcfdfeff000102030405060708090a0b0c0d0e0f101112131415161718191a1b1c1d1e1f202122232425262728292a2b2c2d2e2f303132333435363738393a3b3c3d3e3f404142434445464748494a4b4c4d4e4f505152535455565758595a5b5c5d5e5f606162636465666768696a6b6c6d6e6f707172737475767778797a7b7c7d7e7f808182838485868788898a8b8c8d8e8f909192939495969798999a9b9c9d9e9fa0a1a2a3a4a5a6a7a8a9aaabacadaeafb0b1b2b3b4b5b6b7b8b9babbbcbdbebfc0c1c2c3c4c5c6c7c8c9cacbcccdcecfd0d1d2d3d4d5d6d7d8d9dadbdcdddedfe0e1e2e3e4e5e6e7e8e9eaebecedeeeff0f1f2f3f4f5f6f7f8f9fafbfcfdfeff000102030405060708090a0b0c0d0e0f101112131415161718191a1b1c1d1e1f202122232425262728292a2b2c2d2e2f303132333435363738393a3b3c3d3e3f404142434445464748494a4b4c4d4e4f505152535455565758595a5b5c5d5e5f606162636465666768696a6b6c6d6e6f707172737475767778797a7b7c7d7e7f808182838485868788898a8b8c8d8e8f909192939495969798999a9b9c9d9e9fa0a1a2a3a4a5a6a7a8a9aaabacadaeafb0b1b2b3b4b5b6b7b8b9babbbcbdbebfc0c1c2c3c4c5c6c7c8c9cacbcccdcecfd0d1d2d3d4d5d6d7d8d9dadbdcdddedfe0e1e2e3e4e5e6e7e8e9eaebecedeeeff0f1f2f3f4f5f6f7f8f9fafbfcfdfeff000102030405060708090a0b0c0d0e0f101112131415161718191a1b1c1d1e1f202122232425262728292a2b2c2d2e2f303132333435363738393a3b3c3d3e3f404142434445464748494a4b4c4d4e4f505152535455565758595a5b5c5d5e5f606162636465666768696a6b6c6d6e6f707172737475767778797a7b7c7d7e7f808182838485868788898a8b8c8d8e8f909192939495969798999a9b9c9d9e9fa0a1a2a3a4a5a6a7a8a9aaabacadaeafb0b1b2b3b4b5b6b7b8b9babbbcbdbebfc0c1c2c3c4c5c6c7c8c9cacbcccdcecfd0d1d2d3d4d5d6d7d8d9dadbdcdddedfe0e1e2e3e4e5e6e7e8e9eaebecedeeeff0f1f2f3f4f5f6f7f8f9fafbfcfdfeff000102030405060708090a0b0c0d0e0f101112131415161718191a1b1c1d1e1f202122232425262728292a2b2c2d2e2f303132333435363738393a3b3c3d3e3f404142434445464748494a4b4c4d4e4f505152535455565758595a5b5c5d5e5f606162636465666768696a6b6c6d6e6f7071727374757677">
      <field name="data.data" showname="Data: 3d2a080000000000101112131415161718191a1b1c1d1e1f..." size="1392" pos="50" show="3d:2a:08:00:00:00:00:00:10:11:12:13:14:15:16:17:18:19:1a:1b:1c:1d:1e:1f:20:21:22:23:24:25:26:27:28:29:2a:2b:2c:2d:2e:2f:30:31:32:33:34:35:36:37:38:39:3a:3b:3c:3d:3e:3f:40:41:42:43:44:45:46:47:48:49:4a:4b:4c:4d:4e:4f:50:51:52:53:54:55:56:57:58:59:5a:5b:5c:5d:5e:5f:60:61:62:63:64:65:66:67:68:69:6a:6b:6c:6d:6e:6f:70:71:72:73:74:75:76:77:78:79:7a:7b:7c:7d:7e:7f:80:81:82:83:84:85:86:87:88:89:8a:8b:8c:8d:8e:8f:90:91:92:93:94:95:96:97:98:99:9a:9b:9c:9d:9e:9f:a0:a1:a2:a3:a4:a5:a6:a7:a8:a9:aa:ab:ac:ad:ae:af:b0:b1:b2:b3:b4:b5:b6:b7:b8:b9:ba:bb:bc:bd:be:bf:c0:c1:c2:c3:c4:c5:c6:c7:c8:c9:ca:cb:cc:cd:ce:cf:d0:d1:d2:d3:d4:d5:d6:d7:d8:d9:da:db:dc:dd:de:df:e0:e1:e2:e3:e4:e5:e6:e7:e8:e9:ea:eb:ec:ed:ee:ef:f0:f1:f2:f3:f4:f5:f6:f7:f8:f9:fa:fb:fc:fd:fe:ff:00:01:02:03:04:05:06:07:08:09:0a:0b:0c:0d:0e:0f:10:11:12:13:14:15:16:17:18:19:1a:1b:1c:1d:1e:1f:20:21:22:23:24:25:26:27:28:29:2a:2b:2c:2d:2e:2f:30:31:32:33:34:35:36:37:38:39:3a:3b:3c:3d:3e:3f:40:41:42:43:44:45:46:47:48:49:4a:4b:4c:4d:4e:4f:50:51:52:53:54:55:56:57:58:59:5a:5b:5c:5d:5e:5f:60:61:62:63:64:65:66:67:68:69:6a:6b:6c:6d:6e:6f:70:71:72:73:74:75:76:77:78:79:7a:7b:7c:7d:7e:7f:80:81:82:83:84:85:86:87:88:89:8a:8b:8c:8d:8e:8f:90:91:92:93:94:95:96:97:98:99:9a:9b:9c:9d:9e:9f:a0:a1:a2:a3:a4:a5:a6:a7:a8:a9:aa:ab:ac:ad:ae:af:b0:b1:b2:b3:b4:b5:b6:b7:b8:b9:ba:bb:bc:bd:be:bf:c0:c1:c2:c3:c4:c5:c6:c7:c8:c9:ca:cb:cc:cd:ce:cf:d0:d1:d2:d3:d4:d5:d6:d7:d8:d9:da:db:dc:dd:de:df:e0:e1:e2:e3:e4:e5:e6:e7:e8:e9:ea:eb:ec:ed:ee:ef:f0:f1:f2:f3:f4:f5:f6:f7:f8:f9:fa:fb:fc:fd:fe:ff:00:01:02:03:04:05:06:07:08:09:0a:0b:0c:0d:0e:0f:10:11:12:13:14:15:16:17:18:19:1a:1b:1c:1d:1e:1f:20:21:22:23:24:25:26:27:28:29:2a:2b:2c:2d:2e:2f:30:31:32:33:34:35:36:37:38:39:3a:3b:3c:3d:3e:3f:40:41:42:43:44:45:46:47:48:49:4a:4b:4c:4d:4e:4f:50:51:52:53:54:55:56:57:58:59:5a:5b:5c:5d:5e:5f:60:61:62:63:64:65:66:67:68:69:6a:6b:6c:6d:6e:6f:70:71:72:73:74:75:76:77:78:79:7a:7b:7c:7d:7e:7f:80:81:82:83:84:85:86:87:88:89:8a:8b:8c:8d:8e:8f:90:91:92:93:94:95:96:97:98:99:9a:9b:9c:9d:9e:9f:a0:a1:a2:a3:a4:a5:a6:a7:a8:a9:aa:ab:ac:ad:ae:af:b0:b1:b2:b3:b4:b5:b6:b7:b8:b9:ba:bb:bc:bd:be:bf:c0:c1:c2:c3:c4:c5:c6:c7:c8:c9:ca:cb:cc:cd:ce:cf:d0:d1:d2:d3:d4:d5:d6:d7:d8:d9:da:db:dc:dd:de:df:e0:e1:e2:e3:e4:e5:e6:e7:e8:e9:ea:eb:ec:ed:ee:ef:f0:f1:f2:f3:f4:f5:f6:f7:f8:f9:fa:fb:fc:fd:fe:ff:00:01:02:03:04:05:06:07:08:09:0a:0b:0c:0d:0e:0f:10:11:12:13:14:15:16:17:18:19:1a:1b:1c:1d:1e:1f:20:21:22:23:24:25:26:27:28:29:2a:2b:2c:2d:2e:2f:30:31:32:33:34:35:36:37:38:39:3a:3b:3c:3d:3e:3f:40:41:42:43:44:45:46:47:48:49:4a:4b:4c:4d:4e:4f:50:51:52:53:54:55:56:57:58:59:5a:5b:5c:5d:5e:5f:60:61:62:63:64:65:66:67:68:69:6a:6b:6c:6d:6e:6f:70:71:72:73:74:75:76:77:78:79:7a:7b:7c:7d:7e:7f:80:81:82:83:84:85:86:87:88:89:8a:8b:8c:8d:8e:8f:90:91:92:93:94:95:96:97:98:99:9a:9b:9c:9d:9e:9f:a0:a1:a2:a3:a4:a5:a6:a7:a8:a9:aa:ab:ac:ad:ae:af:b0:b1:b2:b3:b4:b5:b6:b7:b8:b9:ba:bb:bc:bd:be:bf:c0:c1:c2:c3:c4:c5:c6:c7:c8:c9:ca:cb:cc:cd:ce:cf:d0:d1:d2:d3:d4:d5:d6:d7:d8:d9:da:db:dc:dd:de:df:e0:e1:e2:e3:e4:e5:e6:e7:e8:e9:ea:eb:ec:ed:ee:ef:f0:f1:f2:f3:f4:f5:f6:f7:f8:f9:fa:fb:fc:fd:fe:ff:00:01:02:03:04:05:06:07:08:09:0a:0b:0c:0d:0e:0f:10:11:12:13:14:15:16:17:18:19:1a:1b:1c:1d:1e:1f:20:21:22:23:24:25:26:27:28:29:2a:2b:2c:2d:2e:2f:30:31:32:33:34:35:36:37:38:39:3a:3b:3c:3d:3e:3f:40:41:42:43:44:45:46:47:48:49:4a:4b:4c:4d:4e:4f:50:51:52:53:54:55:56:57:58:59:5a:5b:5c:5d:5e:5f:60:61:62:63:64:65:66:67:68:69:6a:6b:6c:6d:6e:6f:70:71:72:73:74:75:76:77:78:79:7a:7b:7c:7d:7e:7f:80:81:82:83:84:85:86:87:88:89:8a:8b:8c:8d:8e:8f:90:91:92:93:94:95:96:97:98:99:9a:9b:9c:9d:9e:9f:a0:a1:a2:a3:a4:a5:a6:a7:a8:a9:aa:ab:ac:ad:ae:af:b0:b1:b2:b3:b4:b5:b6:b7:b8:b9:ba:bb:bc:bd:be:bf:c0:c1:c2:c3:c4:c5:c6:c7:c8:c9:ca:cb:cc:cd:ce:cf:d0:d1:d2:d3:d4:d5:d6:d7:d8:d9:da:db:dc:dd:de:df:e0:e1:e2:e3:e4:e5:e6:e7:e8:e9:ea:eb:ec:ed:ee:ef:f0:f1:f2:f3:f4:f5:f6:f7:f8:f9:fa:fb:fc:fd:fe:ff:00:01:02:03:04:05:06:07:08:09:0a:0b:0c:0d:0e:0f:10:11:12:13:14:15:16:17:18:19:1a:1b:1c:1d:1e:1f:20:21:22:23:24:25:26:27:28:29:2a:2b:2c:2d:2e:2f:30:31:32:33:34:35:36:37:38:39:3a:3b:3c:3d:3e:3f:40:41:42:43:44:45:46:47:48:49:4a:4b:4c:4d:4e:4f:50:51:52:53:54:55:56:57:58:59:5a:5b:5c:5d:5e:5f:60:61:62:63:64:65:66:67:68:69:6a:6b:6c:6d:6e:6f:70:71:72:73:74:75:76:77" value="3d2a080000000000101112131415161718191a1b1c1d1e1f202122232425262728292a2b2c2d2e2f303132333435363738393a3b3c3d3e3f404142434445464748494a4b4c4d4e4f505152535455565758595a5b5c5d5e5f606162636465666768696a6b6c6d6e6f707172737475767778797a7b7c7d7e7f808182838485868788898a8b8c8d8e8f909192939495969798999a9b9c9d9e9fa0a1a2a3a4a5a6a7a8a9aaabacadaeafb0b1b2b3b4b5b6b7b8b9babbbcbdbebfc0c1c2c3c4c5c6c7c8c9cacbcccdcecfd0d1d2d3d4d5d6d7d8d9dadbdcdddedfe0e1e2e3e4e5e6e7e8e9eaebecedeeeff0f1f2f3f4f5f6f7f8f9fafbfcfdfeff000102030405060708090a0b0c0d0e0f101112131415161718191a1b1c1d1e1f202122232425262728292a2b2c2d2e2f303132333435363738393a3b3c3d3e3f404142434445464748494a4b4c4d4e4f505152535455565758595a5b5c5d5e5f606162636465666768696a6b6c6d6e6f707172737475767778797a7b7c7d7e7f808182838485868788898a8b8c8d8e8f909192939495969798999a9b9c9d9e9fa0a1a2a3a4a5a6a7a8a9aaabacadaeafb0b1b2b3b4b5b6b7b8b9babbbcbdbebfc0c1c2c3c4c5c6c7c8c9cacbcccdcecfd0d1d2d3d4d5d6d7d8d9dadbdcdddedfe0e1e2e3e4e5e6e7e8e9eaebecedeeeff0f1f2f3f4f5f6f7f8f9fafbfcfdfeff000102030405060708090a0b0c0d0e0f101112131415161718191a1b1c1d1e1f202122232425262728292a2b2c2d2e2f303132333435363738393a3b3c3d3e3f404142434445464748494a4b4c4d4e4f505152535455565758595a5b5c5d5e5f606162636465666768696a6b6c6d6e6f707172737475767778797a7b7c7d7e7f808182838485868788898a8b8c8d8e8f909192939495969798999a9b9c9d9e9fa0a1a2a3a4a5a6a7a8a9aaabacadaeafb0b1b2b3b4b5b6b7b8b9babbbcbdbebfc0c1c2c3c4c5c6c7c8c9cacbcccdcecfd0d1d2d3d4d5d6d7d8d9dadbdcdddedfe0e1e2e3e4e5e6e7e8e9eaebecedeeeff0f1f2f3f4f5f6f7f8f9fafbfcfdfeff000102030405060708090a0b0c0d0e0f101112131415161718191a1b1c1d1e1f202122232425262728292a2b2c2d2e2f303132333435363738393a3b3c3d3e3f404142434445464748494a4b4c4d4e4f505152535455565758595a5b5c5d5e5f606162636465666768696a6b6c6d6e6f707172737475767778797a7b7c7d7e7f808182838485868788898a8b8c8d8e8f909192939495969798999a9b9c9d9e9fa0a1a2a3a4a5a6a7a8a9aaabacadaeafb0b1b2b3b4b5b6b7b8b9babbbcbdbebfc0c1c2c3c4c5c6c7c8c9cacbcccdcecfd0d1d2d3d4d5d6d7d8d9dadbdcdddedfe0e1e2e3e4e5e6e7e8e9eaebecedeeeff0f1f2f3f4f5f6f7f8f9fafbfcfdfeff000102030405060708090a0b0c0d0e0f101112131415161718191a1b1c1d1e1f202122232425262728292a2b2c2d2e2f303132333435363738393a3b3c3d3e3f404142434445464748494a4b4c4d4e4f505152535455565758595a5b5c5d5e5f606162636465666768696a6b6c6d6e6f707172737475767778797a7b7c7d7e7f808182838485868788898a8b8c8d8e8f909192939495969798999a9b9c9d9e9fa0a1a2a3a4a5a6a7a8a9aaabacadaeafb0b1b2b3b4b5b6b7b8b9babbbcbdbebfc0c1c2c3c4c5c6c7c8c9cacbcccdcecfd0d1d2d3d4d5d6d7d8d9dadbdcdddedfe0e1e2e3e4e5e6e7e8e9eaebecedeeeff0f1f2f3f4f5f6f7f8f9fafbfcfdfeff000102030405060708090a0b0c0d0e0f101112131415161718191a1b1c1d1e1f202122232425262728292a2b2c2d2e2f303132333435363738393a3b3c3d3e3f404142434445464748494a4b4c4d4e4f505152535455565758595a5b5c5d5e5f606162636465666768696a6b6c6d6e6f7071727374757677"/>
      <field name="data.len" showname="Length: 1392" size="0" pos="50" show="1392"/>
    </field>
  </proto>
</packet>


</pdml>
